(dp1
V\u7504
(dp2
V\u5b50
(dp3
V\u4e39
(dp4
S'$'
I23
ssssV\u4e2d
(dp5
V\u56fd
(dp6
S'$'
I23
sssV\u5e0c
(dp7
V\u533a
(dp8
V\u67ef
(dp9
V\u514b
(dp10
S'$'
I23
sssssV\u7f8e
(dp11
V\u56fd
(dp12
S'$'
I23
sssV\u6211
(dp13
V\u7231
(dp14
Vc
(dp15
Vh
(dp16
Vi
(dp17
Vn
(dp18
Va
(dp19
S'$'
I23
sssssssV\u7684
(dp20
S'$'
I23
sssV\u6210
(dp21
V\u529f
(dp22
S'$'
I23
sssV\u6597
(dp23
V\u725b
(dp24
S'$'
I23
sssV\u901d
(dp25
V\u4e16
(dp26
S'$'
I23
sssV\u4e1c
(dp27
V\u897f
(dp28
S'$'
I23
sssV\u7167
(dp29
V\u7247
(dp30
S'$'
I23
sssV\u5f71
(dp31
V\u4eba
(dp32
S'$'
I23
ssV\u8bc4
(dp33
S'$'
I23
sssV\u4f26
(dp34
V\u7406
(dp35
S'$'
I23
sssV\u84dd
(dp36
V\u8393
(dp37
V\u4e4b
(dp38
V\u591c
(dp39
S'$'
I23
sssssV\u64ad
(dp40
V\u79cd
(dp41
V\u5728
(dp42
V\u6625
(dp43
V\u5929
(dp44
S'$'
I23
ssssssV\u7231
(dp45
V\u60c5
(dp46
S'$'
I23
sssV\u7535
(dp47
V\u5f71
(dp48
V\u4e0b
(dp49
V\u8f7d
(dp50
S'$'
I23
sssS'$'
I46
sssV\u5434
(dp51
V\u5c0a
(dp52
S'$'
I23
sssVd
(dp53
S'i'
(dp54
S'a'
(dp55
S'n'
(dp56
S'y'
(dp57
S'i'
(dp58
S'n'
(dp59
S'g'
(dp60
S'x'
(dp61
S'i'
(dp62
S'a'
(dp63
S'z'
(dp64
S'a'
(dp65
S'i'
(dp66
S'$'
I46
sssssssS'$'
I46
ssssssssVu
(dp67
Vc
(dp68
Vk
(dp69
S'$'
I23
ssssVe
(dp70
Vm
(dp71
Vo
(dp72
S'$'
I23
ssssS'o'
(dp73
S'u'
(dp74
S'n'
(dp75
S'i'
(dp76
S'u'
(dp77
S'$'
I46
sssssS'n'
(dp78
S'g'
(dp79
S'x'
(dp80
S'i'
(dp81
S'$'
I23
sssssssV\u533e
(dp82
V\u989d
(dp83
S'$'
I23
sssV\u63e1
(dp84
V\u7740
(dp85
V\u5e0c
(dp86
V\u671b
(dp87
S'$'
I23
sssssVf
(dp88
Va
(dp89
Vi
(dp90
Vn
(dp91
Vt
(dp92
S'$'
I23
sssssVo
(dp93
Vr
(dp94
Vk
(dp95
S'$'
I23
sssssV\u6dd8
(dp96
V\u789f
(dp97
S'$'
I23
sssV\u8bdd
(dp98
V\u9898
(dp99
S'$'
I23
sssV\u56de
(dp100
V\u5fc6
(dp101
S'$'
I23
sssVa
(dp102
S'i'
(dp103
S'q'
(dp104
S'i'
(dp105
S'n'
(dp106
S'g'
(dp107
S'$'
I23
ssssssVj
(dp108
Va
(dp109
Vx
(dp110
S'$'
I23
ssssVb
(dp111
Vo
(dp112
Vr
(dp113
Vt
(dp114
S'$'
I23
ssssssVc
(dp115
Va
(dp116
Vt
(dp117
S'$'
I23
ssS'd'
(dp118
S'i'
(dp119
S'a'
(dp120
S'o'
(dp121
S'$'
I23
ssssssS'h'
(dp122
S'e'
(dp123
S'n'
(dp124
S'g'
(dp125
S'g'
(dp126
S'o'
(dp127
S'n'
(dp128
S'g'
(dp129
S'$'
I23
sssssssssVo
(dp130
Vo
(dp131
Vl
(dp132
S'$'
I23
sssssVb
(dp133
Vi
(dp134
S'a'
(dp135
S'n'
(dp136
S'e'
(dp137
S'$'
I23
ssssVr
(dp138
Vd
(dp139
S'$'
I23
ssssVo
(dp140
Vy
(dp141
S'$'
I23
ssS'c'
(dp142
S'h'
(dp143
S'o'
(dp144
S'n'
(dp145
S'g'
(dp146
S'z'
(dp147
S'a'
(dp148
S'i'
(dp149
S'c'
(dp150
S'h'
(dp151
S'u'
(dp152
S'n'
(dp153
S't'
(dp154
S'i'
(dp155
S'a'
(dp156
S'n'
(dp157
S'$'
I23
sssssssssssssssssS'z'
(dp158
S'h'
(dp159
S'o'
(dp160
S'n'
(dp161
S'g'
(dp162
S'z'
(dp163
S'a'
(dp164
S'i'
(dp165
S'c'
(dp166
S'h'
(dp167
S'u'
(dp168
S'n'
(dp169
S't'
(dp170
S'i'
(dp171
S'a'
(dp172
S'n'
(dp173
S'$'
I46
sssssssssssssssssssV\u65e5
(dp174
V\u5fd7
(dp175
S'$'
I23
sssV\u5267
(dp176
V\u60c5
(dp177
S'$'
I23
sssVg
(dp178
Ve
(dp179
Vt
(dp180
S'$'
I23
sssVo
(dp181
Vo
(dp182
Vg
(dp183
Vl
(dp184
Ve
(dp185
S'$'
I23
sssssssV\u64e6
(dp186
V\u6389
(dp187
S'$'
I23
sssVh
(dp188
Vi
(dp189
Vg
(dp190
Vh
(dp191
S'$'
I23
ssssS'u'
(dp192
S'a'
(dp193
S't'
(dp194
S'i'
(dp195
S'$'
I23
ssssS'i'
(dp196
S'y'
(dp197
S'i'
(dp198
S'$'
I23
sssssVo
(dp199
Vt
(dp200
S'$'
I23
ssssVk
(dp201
Vi
(dp202
Vl
(dp203
Vl
(dp204
S'$'
I23
sssVn
(dp205
Vg
(dp206
S'$'
I23
sssssVj
(dp207
Va
(dp208
Vk
(dp209
Ve
(dp210
S'$'
I23
ssssS'u'
(dp211
S'q'
(dp212
S'i'
(dp213
S'n'
(dp214
S'g'
(dp215
S'$'
I23
ssssssVo
(dp216
Vk
(dp217
Ve
(dp218
S'$'
I23
sssssVm
(dp219
S'e'
(dp220
S'i'
(dp221
S'g'
(dp222
S'u'
(dp223
S'o'
(dp224
S'$'
I23
ssssssVo
(dp225
Vt
(dp226
Vh
(dp227
Ve
(dp228
Vr
(dp229
S'$'
I23
sssssVn
(dp230
Vt
(dp231
Vh
(dp232
S'$'
I23
ssssssVl
(dp233
S'a'
(dp234
S'm'
(dp235
S'e'
(dp236
S'i'
(dp237
S'z'
(dp238
S'h'
(dp239
S'i'
(dp240
S'y'
(dp241
S'e'
(dp242
S'$'
I23
sssssssssS'n'
(dp243
S'm'
(dp244
S'e'
(dp245
S'i'
(dp246
S'z'
(dp247
S'h'
(dp248
S'i'
(dp249
S'y'
(dp250
S'e'
(dp251
S'$'
I23
sssssssssssS'u'
(dp252
S'n'
(dp253
S'l'
(dp254
S'i'
(dp255
S'$'
I23
sssssVe
(dp256
Vt
(dp257
S'$'
I23
sssVo
(dp258
Vv
(dp259
Ve
(dp260
S'$'
I23
sssssVo
(dp261
Vp
(dp262
Ve
(dp263
Vr
(dp264
Va
(dp265
Vt
(dp266
Vi
(dp267
Vo
(dp268
Vn
(dp269
S'$'
I23
sssssssssVl
(dp270
Vy
(dp271
Vm
(dp272
Vp
(dp273
Vi
(dp274
Vc
(dp275
S'$'
I23
ssssssssVn
(dp276
Vu
(dp277
Vm
(dp278
Vb
(dp279
Ve
(dp280
Vr
(dp281
S'$'
I23
ssssssVo
(dp282
Vk
(dp283
Vi
(dp284
Va
(dp285
S'$'
I23
ssssssVq
(dp286
Vu
(dp287
Vi
(dp288
Vc
(dp289
Vk
(dp290
S'$'
I23
sssVe
(dp291
Vt
(dp292
S'$'
I23
ssssS'a'
(dp293
S'n'
(dp294
S'b'
(dp295
S'u'
(dp296
S'$'
I23
sssssssVp
(dp297
Ve
(dp298
Ve
(dp299
Vk
(dp300
S'$'
I23
ssssVo
(dp301
Vi
(dp302
Vn
(dp303
Vt
(dp304
S'$'
I23
ssssssVs
(dp305
S'h'
(dp306
S'i'
(dp307
S's'
(dp308
S'h'
(dp309
S'i'
(dp310
S'$'
I23
ssssssVu
(dp311
Vm
(dp312
Vm
(dp313
Ve
(dp314
Vr
(dp315
S'$'
I23
ssssssVt
(dp316
Va
(dp317
Vr
(dp318
Vt
(dp319
S'$'
I23
ssssssVr
(dp320
S'i'
(dp321
S'z'
(dp322
S'h'
(dp323
S'i'
(dp324
S'$'
I23
sssssVe
(dp325
Vq
(dp326
Vu
(dp327
Ve
(dp328
Vs
(dp329
Vt
(dp330
S'$'
I23
ssssssVs
(dp331
Ve
(dp332
Vt
(dp333
S'$'
I23
ssssssVu
(dp334
Vb
(dp335
Vu
(dp336
Vn
(dp337
Vt
(dp338
Vu
(dp339
S'$'
I23
ssssssVn
(dp340
Vd
(dp341
Ve
(dp342
Vr
(dp343
S'$'
I23
ssssssVt
(dp344
S'a'
(dp345
S'o'
(dp346
S'd'
(dp347
S'i'
(dp348
S'e'
(dp349
S'$'
I23
ssssssVo
(dp350
Vo
(dp351
Vt
(dp352
Vh
(dp353
S'$'
I23
sssssVw
(dp354
Vi
(dp355
Vn
(dp356
Vs
(dp357
S'$'
I23
ssssssVw
(dp358
Vi
(dp359
Vd
(dp360
Vo
(dp361
Vw
(dp362
S'$'
I23
ssssVn
(dp363
Vd
(dp364
Vo
(dp365
Vw
(dp366
S'$'
I23
ssssssS'u'
(dp367
S'z'
(dp368
S'u'
(dp369
S'n'
(dp370
S'$'
I23
sssssS'o'
(dp371
Va
(dp372
Vi
(dp373
Vc
(dp374
Vh
(dp375
Vi
(dp376
Vn
(dp377
Va
(dp378
S'$'
I23
ssssssssS'z'
(dp379
S'h'
(dp380
S'a'
(dp381
S'o'
(dp382
S'x'
(dp383
S'i'
(dp384
S'w'
(dp385
S'a'
(dp386
S'n'
(dp387
S'g'
(dp388
S'$'
I46
sssssssssS'u'
(dp389
S'o'
(dp390
S'x'
(dp391
S'i'
(dp392
S'w'
(dp393
S'a'
(dp394
S'n'
(dp395
S'g'
(dp396
S'$'
I23
sssssssssS'e'
(dp397
S'x'
(dp398
S'i'
(dp399
S'w'
(dp400
S'a'
(dp401
S'n'
(dp402
S'g'
(dp403
S'$'
I23
ssssssssssS'd'
(dp404
S'i'
(dp405
S'$'
I46
ssS'e'
(dp406
S'$'
I23
sssssVv
(dp407
Vi
(dp408
Vr
(dp409
Vg
(dp410
Vi
(dp411
Vn
(dp412
S'$'
I23
sssssVv
(dp413
Vi
(dp414
Vd
(dp415
S'$'
I23
ssssssVy
(dp416
Va
(dp417
Vh
(dp418
Vo
(dp419
Vo
(dp420
S'$'
I23
sssssS'i'
(dp421
S'n'
(dp422
S'g'
(dp423
S'p'
(dp424
S'i'
(dp425
S'n'
(dp426
S'g'
(dp427
S'$'
I23
sssssS'r'
(dp428
S'e'
(dp429
S'n'
(dp430
S'$'
I23
sssssssVe
(dp431
Vs
(dp432
S'$'
I23
ssVt
(dp433
S'$'
I23
ssssVx
(dp434
S'i'
(dp435
S'q'
(dp436
S'u'
(dp437
S'k'
(dp438
S'e'
(dp439
S'k'
(dp440
S'e'
(dp441
S'$'
I23
sssssssS'o'
(dp442
S'u'
(dp443
S'k'
(dp444
S'e'
(dp445
S'k'
(dp446
S'e'
(dp447
S'$'
I23
ssssssssVe
(dp448
Vr
(dp449
Vo
(dp450
Vx
(dp451
S'$'
I23
sssssV-
(dp452
Vr
(dp453
Va
(dp454
Vy
(dp455
S'$'
I23
ssssssV\u5168
(dp456
V\u90e8
(dp457
S'$'
I23
sssVz
(dp458
Vh
(dp459
Vi
(dp460
Vm
(dp461
Va
(dp462
Va
(dp463
S'$'
I23
sssssS'a'
(dp464
S'o'
(dp465
S'p'
(dp466
S'i'
(dp467
S'a'
(dp468
S'n'
(dp469
S'$'
I46
sssssssS'e'
(dp470
S'n'
(dp471
S'z'
(dp472
S'i'
(dp473
S'd'
(dp474
S'a'
(dp475
S'n'
(dp476
S'$'
I23
ssssssssS'o'
(dp477
S'n'
(dp478
S'g'
(dp479
S'g'
(dp480
S'u'
(dp481
S'o'
(dp482
S'$'
I46
ssssssssVo
(dp483
Vo
(dp484
Vm
(dp485
S'$'
I23
sssssVe
(dp486
Va
(dp487
Vr
(dp488
Vt
(dp489
Vh
(dp490
S'$'
I23
ssssVt
(dp491
S'$'
I23
ssss.