(dp1
V\u8000
(lp2
S'yao'
p3
asV\u6D89
(lp4
S'she'
p5
asV\u8C08
(lp6
S'tan'
p7
asV\u4F0A
(lp8
S'yi'
p9
asV\u4E9F
(lp10
S'ji'
p11
aS'qi'
p12
asV\u6D1E
(lp13
S'dong'
p14
asV\u54A3
(lp15
S'guang'
p16
asV\u7322
(lp17
S'hu'
p18
asV\u60AB
(lp19
S'que'
p20
asV\u7F2A
(lp21
S'miao'
p22
aS'miu'
p23
aS'mou'
p24
asV\u6CB3
(lp25
S'he'
p26
asV\u4E34
(lp27
S'lin'
p28
asV\u72B7
(lp29
S'guang'
p30
asV\u5438
(lp31
S'xi'
p32
asV\u5A3C
(lp33
S'chang'
p34
asV\u7EBF
(lp35
S'xian'
p36
asV\u53CD
(lp37
S'fan'
p38
asV\u724C
(lp39
S'pai'
p40
asV\u96CF
(lp41
S'chu'
p42
asV\u59D1
(lp43
S'gu'
p44
asV\u7850
(lp45
S'dong'
p46
ag14
asV\u9CD3
(lp47
S'le'
p48
asV\u5362
(lp49
S'lu'
p50
asV\u77E5
(lp51
S'zhi'
p52
aS'zhi'
p53
asV\u9664
(lp54
g42
asV\u5F6A
(lp55
S'biao'
p56
asV\u95F9
(lp57
S'nao'
p58
asV\u5EFF
(lp59
S'nian'
p60
asV\u8986
(lp61
S'fu'
p62
asV\u8F8A
(lp63
S'gun'
p64
asV\u5E94
(lp65
S'ying'
p66
aS'ying'
p67
asV\u881B
(lp68
S'mie'
p69
asV\u8E1F
(lp70
S'chi'
p71
asV\u5121
(lp72
S'lei'
p73
asV\u76A4
(lp74
S'po'
p75
asV\u5D29
(lp76
S'beng'
p77
asV\u82AC
(lp78
S'fen'
p79
asV\u51B6
(lp80
S'ye'
p81
asV\u94B8
(lp82
S'bu'
p83
asV\u9ABC
(lp84
S'ge'
p85
asV\u8D49
(lp86
S'lai'
p87
asV\u6E5F
(lp88
S'huang'
p89
asV\u8DDE
(lp90
S'li'
p91
asV\u56E4
(lp92
S'dun'
p93
aS'tun'
p94
asV\u5CE8
(lp95
S'e'
asV\u62EC
(lp96
S'gua'
p97
aS'kuo'
p98
asV\u68F0
(lp99
S'chui'
p100
asV\u8C73
(lp101
S'bin'
p102
asV\u6EF4
(lp103
S'di'
p104
asV\u987B
(lp105
S'xu'
p106
asV\u5B7D
(lp107
S'nie'
p108
asV\u9E7F
(lp109
S'lu'
p110
asV\u6C89
(lp111
S'chen'
p112
asV\u4E0A
(lp113
S'shang'
p114
aS'shang'
p115
asV\u728D
(lp116
S'jian'
p117
aS'qian'
p118
asV\u540E
(lp119
S'hou'
p120
asV\u7891
(lp121
S'bei'
p122
asV\u9910
(lp123
S'can'
p124
asV\u6016
(lp125
S'bu'
p126
asV\u8499
(lp127
S'meng'
p128
aS'meng'
p129
aS'meng'
p130
asV\u90A1
(lp131
S'fang'
p132
asV\u7826
(lp133
S'zhai'
p134
asV\u9CA9
(lp135
S'huan'
p136
asV\u67AF
(lp137
S'ku'
p138
asV\u4F34
(lp139
S'ban'
p140
asV\u73B7
(lp141
S'dian'
p142
asV\u9036
(lp143
S'wei'
p144
asV\u79BB
(lp145
S'li'
p146
asV\u7FBF
(lp147
S'yi'
p148
asV\u6D48
(lp149
S'zhen'
p150
asV\u58D1
(lp151
S'he'
p152
asV\u7F54
(lp153
S'wang'
p154
asV\u76E5
(lp155
S'guan'
p156
asV\u88F1
(lp157
S'biao'
p158
asV\u53F7
(lp159
S'hao'
p160
aS'hao'
p161
asV\u7076
(lp162
S'zao'
p163
asV\u94F9
(lp164
S'lao'
p165
asV\u59FB
(lp166
S'yin'
p167
asV\u5FFF
(lp168
S'fen'
p169
asV\u8282
(lp170
S'jie'
p171
aS'jie'
p172
asV\u538C
(lp173
S'yan'
p174
asV\u948E
(lp175
S'qian'
p176
asV\u9A92
(lp177
S'ke'
p178
asV\u8317
(lp179
S'ming'
p180
asV\u891B
(lp181
S'lv'
p182
asV\u5021
(lp183
S'chang'
p184
asV\u71A0
(lp185
g148
asV\u9523
(lp186
S'luo'
p187
asV\u7A3D
(lp188
S'ji'
p189
aS'qi'
p190
asV\u62C2
(lp191
S'bi'
p192
aS'fu'
p193
asV\u8C49
(lp194
S'chi'
p195
asV\u514B
(lp196
g178
asV\u574F
(lp197
S'huai'
p198
aS'pi'
p199
asV\u9E55
(lp200
g18
asV\u80D6
(lp201
S'pan'
p202
aS'pang'
p203
asV\u51E0
(lp204
g189
aS'ji'
p205
asV\u57E4
(lp206
g122
ag192
aS'pi'
p207
asV\u5DE8
(lp208
S'ju'
p209
asV\u9EEA
(lp210
S'can'
p211
asV\u8D73
(lp212
S'jiu'
p213
asV\u7BFC
(lp214
S'dou'
p215
asV\u9F7F
(lp216
g195
asV\u8200
(lp217
S'yao'
p218
asV\u8404
(lp219
S'tao'
p220
asV\u6F89
(lp221
S'gan'
p222
asV\u6316
(lp223
S'wa'
p224
asV\u56A3
(lp225
S'ao'
p226
aS'xiao'
p227
asV\u7B26
(lp228
g193
asV\u62AB
(lp229
g199
asV\u872E
(lp230
S'yu'
p231
asV\u70B7
(lp232
S'zhu'
p233
asV\u953A
(lp234
S'zhong'
p235
asV\u9F3E
(lp236
S'han'
p237
asV\u6240
(lp238
S'suo'
p239
asV\u6444
(lp240
g5
asV\u704C
(lp241
g156
asV\u67D9
(lp242
S'xia'
p243
asV\u4F5E
(lp244
S'ning'
p245
asV\u5162
(lp246
S'jing'
p247
asV\u5B66
(lp248
S'xue'
p249
asV\u7FE9
(lp250
S'pian'
p251
asV\u9E68
(lp252
S'liu'
p253
asV\u81ED
(lp254
S'chou'
p255
aS'xiu'
p256
asV\u8BF1
(lp257
S'you'
p258
asV\u4EF3
(lp259
S'pi'
p260
asV\u8DF5
(lp261
S'jian'
p262
asV\u7F7E
(lp263
S'zeng'
p264
asV\u6603
(lp265
S'ze'
p266
asV\u8182
(lp267
g182
asV\u6807
(lp268
g56
asV\u4E88
(lp269
S'yu'
p270
aS'yu'
p271
asV\u8D8A
(lp272
S'yue'
p273
asV\u740F
(lp274
S'lian'
p275
asV\u9992
(lp276
S'man'
p277
asV\u5C94
(lp278
S'cha'
p279
asV\u8017
(lp280
g161
asV\u8C1F
(lp281
S'mo'
p282
asV\u5321
(lp283
S'kuang'
p284
asV\u5F29
(lp285
S'nu'
p286
asV\u7EA8
(lp287
S'wan'
p288
asV\u6D35
(lp289
S'xun'
p290
asV\u53B6
(lp291
S'si'
p292
asV\u61C2
(lp293
g46
asV\u914D
(lp294
S'pei'
p295
asV\u9B51
(lp296
S'chi'
p297
asV\u79D2
(lp298
S'miao'
p299
asV\u83D6
(lp300
g34
asV\u6A5B
(lp301
S'jue'
p302
asV\u6C5F
(lp303
S'jiang'
p304
asV\u8FDE
(lp305
S'lian'
p306
asV\u7663
(lp307
S'xuan'
p308
asV\u5EE8
(lp309
S'xie'
p310
asV\u60EC
(lp311
S'qie'
p312
asV\u76F8
(lp313
S'xiang'
p314
aS'xiang'
p315
asV\u9A7B
(lp316
g233
asV\u597D
(lp317
S'hao'
p318
ag161
asV\u9C7F
(lp319
S'you'
p320
asV\u6485
(lp321
S'jue'
p322
asV\u6E89
(lp323
S'gai'
p324
asV\u560E
(lp325
S'ga'
p326
aS'ga'
p327
aS'ga'
p328
asV\u7A91
(lp329
S'yao'
p330
asV\u7C95
(lp331
S'po'
p332
asV\u6216
(lp333
S'huo'
p334
asV\u57A3
(lp335
S'yuan'
p336
asV\u94A5
(lp337
g3
ag273
asV\u7C2A
(lp338
S'zan'
p339
asV\u65AF
(lp340
g292
asV\u6FB3
(lp341
S'ao'
p342
asV\u8832
(lp343
S'juan'
p344
asV\u593C
(lp345
S'kuang'
p346
asV\u9E3E
(lp347
S'luan'
p348
asV\u89C7
(lp349
S'chan'
p350
asV\u4EC9
(lp351
S'zhang'
p352
asV\u714C
(lp353
g89
asV\u7B50
(lp354
g284
asV\u66D9
(lp355
S'shu'
p356
asV\u4E5E
(lp357
g190
asV\u72E1
(lp358
S'jia'
p359
aS'jiao'
p360
asV\u9564
(lp361
S'pu'
p362
asV\u7EE9
(lp363
g189
asV\u80ED
(lp364
S'yan'
p365
asV\u666E
(lp366
S'pu'
p367
asV\u4FF3
(lp368
g40
asV\u96F9
(lp369
S'bao'
p370
asV\u5BFB
(lp371
S'xin'
p372
ag290
asV\u4F88
(lp373
g195
asV\u8C8A
(lp374
S'mo'
p375
asV\u518C
(lp376
S'ce'
p377
asV\u750F
(lp378
S'beng'
p379
asV\u7F13
(lp380
S'huan'
p381
asV\u6798
(lp382
S'rui'
p383
asV\u699C
(lp384
S'bang'
p385
asV\u8D1F
(lp386
g62
asV\u75A4
(lp387
S'ba'
p388
asV\u6A31
(lp389
g66
asV\u8BB0
(lp390
S'ji'
p391
asV\u8DB4
(lp392
S'pa'
p393
asV\u5EBE
(lp394
g271
asV\u8E49
(lp395
S'cuo'
p396
asV\u6CCA
(lp397
S'bo'
p398
aS'po'
p399
asV\u904D
(lp400
S'bian'
p401
asV\u76CE
(lp402
S'ang'
p403
asV\u5F53
(lp404
S'dang'
p405
aS'dang'
p406
asV\u53E0
(lp407
S'die'
p408
asV\u7763
(lp409
S'du'
p410
asV\u90E2
(lp411
S'ying'
p412
asV\u55E4
(lp413
g297
asV\u7967
(lp414
S'tiao'
p415
asV\u9AE6
(lp416
S'mao'
p417
asV\u836B
(lp418
g167
aS'yin'
p419
asV\u8F73
(lp420
g50
aS'lu'
p421
asV\u9177
(lp422
S'ku'
p423
asV\u77F8
(lp424
S'gan'
p425
asV\u8204
(lp426
S'xi'
p427
asV\u6989
(lp428
S'ju'
p429
asV\u778D
(lp430
S'sou'
p431
asV\u960C
(lp432
S'wen'
p433
asV\u7B95
(lp434
g189
asV\u631A
(lp435
g53
asV\u50A3
(lp436
S'dai'
p437
asV\u7722
(lp438
S'yuan'
p439
asV\u5EA7
(lp440
S'zuo'
p441
asV\u7B2A
(lp442
S'da'
p443
asV\u68B3
(lp444
S'shu'
p445
asV\u9536
(lp446
g292
asV\u5E3C
(lp447
S'guo'
p448
asV\u7ABF
(lp449
S'long'
p450
asV\u80C3
(lp451
S'wei'
p452
asV\u6848
(lp453
S'an'
p454
asV\u94CB
(lp455
g192
asV\u764C
(lp456
S'ai'
p457
asV\u98D3
(lp458
g209
asV\u8058
(lp459
S'pin'
p460
asV\u73E5
(lp461
S'er'
p462
asV\u79E9
(lp463
g53
asV\u5B6A
(lp464
g348
asV\u6F72
(lp465
S'shao'
p466
asV\u8BF5
(lp467
S'song'
p468
asV\u5CFB
(lp469
S'jun'
p470
asV\u6003
(lp471
S'wu'
p472
asV\u8782
(lp473
S'lang'
p474
asV\u5C90
(lp475
S'qi'
p476
asV\u8C1B
(lp477
S'di'
p478
asV\u6E9C
(lp479
S'liu'
p480
ag253
asV\u5929
(lp481
S'tian'
p482
asV\u672D
(lp483
S'zha'
p484
asV\u86AC
(lp485
S'xian'
p486
asV\u6D31
(lp487
g462
asV\u90B8
(lp488
S'di'
p489
asV\u59BE
(lp490
g312
asV\u4E47
(lp491
S'tuo'
p492
asV\u6DC6
(lp493
S'xiao'
p494
asV\u544B
(lp495
S'fu'
p496
asV\u71CE
(lp497
S'liao'
p498
aS'liao'
p499
asV\u6657
(lp500
S'han'
p501
asV\u6C5B
(lp502
S'xun'
p503
asV\u89DE
(lp504
S'shang'
p505
asV\u52E4
(lp506
S'qin'
p507
asV\u846B
(lp508
g18
asV\u826F
(lp509
S'liang'
p510
asV\u6CF0
(lp511
S'tai'
p512
asV\u9677
(lp513
g36
asV\u5179
(lp514
S'ci'
p515
aS'zi'
p516
asV\u7EFC
(lp517
S'zeng'
p518
aS'zong'
p519
asV\u9A7F
(lp520
g148
asV\u8304
(lp521
S'jia'
p522
aS'qie'
p523
asV\u7C91
(lp524
g388
asV\u7A95
(lp525
S'tiao'
p526
asV\u621A
(lp527
S'qi'
p528
asV\u94A1
(lp529
S'bei'
p530
asV\u7622
(lp531
S'ban'
p532
asV\u7C26
(lp533
S'deng'
p534
asV\u65AB
(lp535
S'zhuo'
p536
asV\u5F3C
(lp537
g192
asV\u81C3
(lp538
S'yong'
p539
asV\u8FC7
(lp540
S'guo'
p541
aS'guo'
p542
asV\u7B54
(lp543
S'da'
p544
ag443
asV\u5662
(lp545
S'o'
asV\u5C66
(lp546
g209
asV\u9968
(lp547
g94
asV\u5A6A
(lp548
S'lan'
p549
asV\u86ED
(lp550
g53
asV\u7476
(lp551
g330
asV\u727A
(lp552
g32
asV\u5BFF
(lp553
S'shou'
p554
asV\u8682
(lp555
S'ma'
p556
aS'ma'
p557
aS'ma'
p558
asV\u8A8A
(lp559
S'teng'
p560
asV\u578C
(lp561
g14
aS'tong'
p562
asV\u7913
(lp563
g304
asV\u9E92
(lp564
g476
asV\u8717
(lp565
S'wo'
p566
asV\u4E1D
(lp567
g292
asV\u6F9C
(lp568
g549
asV\u5421
(lp569
S'bi'
p570
ag260
asV\u75A0
(lp571
g91
asV\u9123
(lp572
S'zhang'
p573
asV\u662D
(lp574
S'zhao'
p575
asV\u87AC
(lp576
S'cao'
p577
asV\u4EB2
(lp578
S'qin'
p579
aS'qing'
p580
asV\u6A35
(lp581
S'qiao'
p582
asV\u8BB4
(lp583
S'ou'
p584
asV\u7039
(lp585
g273
asV\u964D
(lp586
S'jiang'
p587
aS'xiang'
p588
asV\u534F
(lp589
S'xie'
p590
asV\u7ED2
(lp591
S'rong'
p592
asV\u84D6
(lp593
g192
asV\u4FDC
(lp594
S'ping'
p595
asV\u53E4
(lp596
S'gu'
p597
asV\u59E8
(lp598
S'yi'
p599
asV\u67EC
(lp600
S'jian'
p601
asV\u836F
(lp602
g3
asV\u5E7D
(lp603
S'you'
p604
asV\u7FFC
(lp605
g148
asV\u6781
(lp606
g11
asV\u8004
(lp607
S'mao'
p608
asV\u6B89
(lp609
g503
asV\u4E9B
(lp610
S'xie'
p611
asV\u611A
(lp612
g270
asV\u52A3
(lp613
S'lie'
p614
asV\u7F26
(lp615
S'man'
p616
asV\u60AF
(lp617
S'min'
p618
asV\u4E30
(lp619
S'feng'
p620
asV\u8D32
(lp621
S'ben'
p622
ag192
asV\u5238
(lp623
S'quan'
p624
aS'xuan'
p625
asV\u5C3C
(lp626
S'ni'
p627
asV\u55CD
(lp628
S'suo'
p629
asV\u90CF
(lp630
S'jia'
p631
asV\u5FD1
(lp632
S'te'
p633
asV\u9AD3
(lp634
S'sui'
p635
asV\u8258
(lp636
S'sou'
p637
asV\u6DDD
(lp638
S'fei'
p639
asV\u71E5
(lp640
g163
asV\u5F66
(lp641
g174
asV\u636E
(lp642
S'ju'
p643
ag209
asV\u717A
(lp644
S'tui'
p645
asV\u7B7E
(lp646
g176
asV\u6C07
(lp647
g421
asV\u8F86
(lp648
S'liang'
p649
asV\u548C
(lp650
g26
ag152
ag18
aS'huo'
p651
ag334
asV\u5E90
(lp652
g50
asV\u6298
(lp653
S'she'
p654
aS'zhe'
p655
aS'zhe'
p656
asV\u7AA8
(lp657
S'xun'
p658
ag419
asV\u6F31
(lp659
S'shu'
p660
asV\u7339
(lp661
S'cha'
p662
asV\u9CBC
(lp663
g169
asV\u5BBE
(lp664
g102
asV\u69CA
(lp665
S'shuo'
p666
asV\u954D
(lp667
g108
asV\u504F
(lp668
g251
asV\u9F51
(lp669
g189
asV\u9955
(lp670
S'tao'
p671
asV\u6E5B
(lp672
S'zhan'
p673
asV\u8BDE
(lp674
S'dan'
p675
asV\u56E0
(lp676
g167
asV\u866B
(lp677
S'chong'
p678
asV\u72F8
(lp679
g146
asV\u987F
(lp680
S'du'
p681
ag93
asV\u8700
(lp682
g356
asV\u950C
(lp683
S'xin'
p684
asV\u520E
(lp685
S'wen'
p686
asV\u9F10
(lp687
S'nai'
p688
asV\u8299
(lp689
g193
asV\u4F9B
(lp690
S'gong'
p691
aS'gong'
p692
asV\u53A3
(lp693
S'yan'
p694
asV\u7422
(lp695
g536
aS'zuo'
p696
asV\u67AB
(lp697
g620
asV\u4F30
(lp698
g44
aS'gu'
p699
asV\u6BB3
(lp700
g445
asV\u8C32
(lp701
g302
asV\u9636
(lp702
g171
asV\u6740
(lp703
S'sha'
p704
asV\u54CD
(lp705
S'xiang'
p706
asV\u754C
(lp707
S'jie'
p708
asV\u91CF
(lp709
g510
ag649
asV\u5ED1
(lp710
S'jin'
p711
ag507
asV\u7F50
(lp712
g156
asV\u58D5
(lp713
g160
asV\u62D9
(lp714
S'zhuo'
p715
asV\u8D5C
(lp716
S'ze'
p717
asV\u9760
(lp718
S'kao'
p719
asV\u5462
(lp720
S'na'
p721
aS'ne'
p722
aS'ne'
p723
ag627
asV\u9164
(lp724
g44
asV\u626E
(lp725
g140
asV\u6C72
(lp726
g11
asV\u55F7
(lp727
g226
asV\u5FFB
(lp728
g684
asV\u59FF
(lp729
g516
asV\u8482
(lp730
g478
asV\u6D07
(lp731
g167
asV\u770B
(lp732
S'kan'
p733
aS'kan'
p734
asV\u928E
(lp735
S'qiong'
p736
asV\u5F90
(lp737
S'xu'
p738
asV\u9C92
(lp739
g172
asV\u8517
(lp740
S'zhe'
p741
asV\u6398
(lp742
g302
asV\u77A0
(lp743
S'cheng'
p744
asV\u5025
(lp745
S'kong'
p746
aS'kong'
p747
asV\u5A29
(lp748
S'mian'
p749
aS'wan'
p750
asV\u7BA8
(lp751
S'tuo'
p752
asV\u642D
(lp753
g544
asV\u8FB0
(lp754
g112
asV\u7239
(lp755
S'die'
p756
asV\u50BA
(lp757
S'chi'
p758
asV\u5ABE
(lp759
S'gou'
p760
asV\u64C2
(lp761
S'lei'
p762
aS'lei'
p763
aS'lei'
p764
asV\u72CE
(lp765
g243
asV\u9E51
(lp766
S'chun'
p767
asV\u5B53
(lp768
g302
asV\u80DA
(lp769
S'pei'
p770
asV\u57E0
(lp771
g126
asV\u94E2
(lp772
S'zhu'
p773
asV\u51E4
(lp774
S'feng'
p775
asV\u5BE8
(lp776
g134
asV\u65EC
(lp777
g290
asV\u4E71
(lp778
S'luan'
p779
asV\u997F
(lp780
S'e'
asV\u7B8D
(lp781
g44
asV\u5D0E
(lp782
g476
asV\u9010
(lp783
S'zhu'
p784
asV\u9614
(lp785
g98
asV\u5CA3
(lp786
S'gou'
p787
asV\u7126
(lp788
S'jiao'
p789
asV\u6EAF
(lp790
S'su'
p791
asV\u8D2E
(lp792
g233
asV\u5C38
(lp793
S'shi'
p794
asV\u70BB
(lp795
S'shi'
p796
asV\u76BF
(lp797
g618
asV\u953E
(lp798
S'huan'
p799
asV\u6840
(lp800
g172
asV\u4FC5
(lp801
S'qiu'
p802
asV\u6E44
(lp803
S'mei'
p804
asV\u82C7
(lp805
S'wei'
p806
asV\u6448
(lp807
S'bin'
p808
asV\u9ECF
(lp809
S'nian'
p810
asV\u51D1
(lp811
S'cou'
p812
asV\u57D5
(lp813
S'cheng'
p814
asV\u7654
(lp815
g148
asV\u6DD9
(lp816
S'cong'
p817
asV\u4F5A
(lp818
g408
ag148
asV\u5B62
(lp819
S'bao'
p820
asV\u7FE5
(lp821
g233
asV\u9E64
(lp822
g152
asV\u576A
(lp823
S'ping'
p824
asV\u8BED
(lp825
g271
ag231
asV\u6D6E
(lp826
g193
asV\u50FB
(lp827
S'pi'
p828
asV\u56FF
(lp829
g258
asV\u5F25
(lp830
S'mi'
p831
asV\u7EA4
(lp832
S'qian'
p833
aS'xian'
p834
asV\u74A8
(lp835
S'can'
p836
asV\u6735
(lp837
S'duo'
p838
asV\u86B4
(lp839
g258
asV\u9CB8
(lp840
g247
asV\u55BE
(lp841
g423
asV\u8941
(lp842
S'qiang'
p843
asV\u6BC2
(lp844
g44
ag597
asV\u8549
(lp845
g789
ag582
asV\u9B4D
(lp846
g154
asV\u5453
(lp847
g148
asV\u89D6
(lp848
g302
asV\u665F
(lp849
S'sheng'
p850
asV\u7267
(lp851
S'mu'
p852
asV\u54E8
(lp853
g466
asV\u886B
(lp854
S'shan'
p855
asV\u97EA
(lp856
g806
asV\u8E6F
(lp857
S'fan'
p858
asV\u60F0
(lp859
S'duo'
p860
asV\u8473
(lp861
g144
asV\u66F4
(lp862
S'geng'
p863
aS'geng'
p864
asV\u9A77
(lp865
S'si'
p866
asV\u7CF8
(lp867
S'mi'
p868
asV\u72FC
(lp869
g474
asV\u6881
(lp870
g510
asV\u6E85
(lp871
g117
ag262
asV\u7A8D
(lp872
S'qiao'
p873
asV\u5212
(lp874
S'hua'
p875
aS'hua'
p876
aS'huai'
p877
asV\u6816
(lp878
g528
ag32
asV\u6E1A
(lp879
S'zhu'
p880
asV\u829D
(lp881
g52
asV\u641E
(lp882
S'gao'
p883
asV\u98A1
(lp884
S'sang'
p885
asV\u94A9
(lp886
S'gou'
p887
asV\u69AB
(lp888
S'sun'
p889
asV\u762A
(lp890
S'bie'
p891
aS'bie'
p892
asV\u8C2E
(lp893
S'zen'
p894
asV\u9E3A
(lp895
S'xiu'
p896
asV\u77BF
(lp897
g209
aS'qu'
p898
asV\u943E
(lp899
g530
asV\u8DC3
(lp900
g273
asV\u4EC5
(lp901
g711
aS'jin'
p902
asV\u83C7
(lp903
g44
asV\u6548
(lp904
S'xiao'
p905
asV\u7B4C
(lp906
S'quan'
p907
asV\u8D58
(lp908
S'zhui'
p909
asV\u835C
(lp910
g192
asV\u5A62
(lp911
g192
asV\u7EE5
(lp912
S'sui'
p913
asV\u9568
(lp914
g367
asV\u566A
(lp915
g163
asV\u4FEF
(lp916
S'fu'
p917
asV\u80F1
(lp918
g16
asV\u51FB
(lp919
g189
asV\u747E
(lp920
g711
asV\u4F84
(lp921
S'zhi'
p922
asV\u6307
(lp923
g52
ag922
aS'zhi'
p924
asV\u8086
(lp925
g866
asV\u868A
(lp926
g433
asV\u5B8C
(lp927
g288
asV\u7F0F
(lp928
g401
aS'pian'
p929
asV\u9C8E
(lp930
g120
asV\u7513
(lp931
g828
asV\u5821
(lp932
S'bao'
p933
aS'bu'
p934
ag367
aS'pu'
p935
asV\u7FA4
(lp936
S'qun'
p937
asV\u5429
(lp938
g79
asV\u6635
(lp939
S'ni'
p940
asV\u723D
(lp941
S'shuang'
p942
asV\u60C6
(lp943
S'chou'
p944
asV\u594B
(lp945
g169
asV\u9051
(lp946
g89
asV\u72D2
(lp947
S'fei'
p948
asV\u9655
(lp949
S'shan'
p950
asV\u675F
(lp951
g660
asV\u5FE4
(lp952
g472
asV\u90E6
(lp953
g91
asV\u55E8
(lp954
S'hai'
p955
aS'hei'
p956
asV\u96EA
(lp957
S'xue'
p958
asV\u8F6F
(lp959
S'ruan'
p960
asV\u67F4
(lp961
S'chai'
p962
asV\u5C79
(lp963
S'ge'
p964
ag148
asV\u527D
(lp965
S'piao'
p966
asV\u6B81
(lp967
g375
asV\u8A00
(lp968
S'yan'
p969
asV\u6D85
(lp970
g108
asV\u8C04
(lp971
S'chan'
p972
asV\u6789
(lp973
g154
asV\u7391
(lp974
g189
asV\u5112
(lp975
S'ru'
p976
asV\u8F99
(lp977
g656
asV\u6D1A
(lp978
g587
asV\u819D
(lp979
g32
asV\u50A7
(lp980
g102
asV\u6AAB
(lp981
g662
asV\u8132
(lp982
S'niao'
p983
asV\u5E38
(lp984
S'chang'
p985
asV\u503C
(lp986
g922
asV\u973E
(lp987
S'mai'
p988
asV\u9ACB
(lp989
S'kuan'
p990
asV\u784C
(lp991
S'ge'
p992
aS'luo'
p993
asV\u9CCF
(lp994
S'guan'
p995
asV\u53D1
(lp996
S'fa'
p997
aS'fa'
p998
asV\u7BE1
(lp999
S'cuan'
p1000
asV\u5962
(lp1001
S'she'
p1002
asV\u5366
(lp1003
S'gua'
p1004
asV\u77E9
(lp1005
g429
asV\u9668
(lp1006
S'yun'
p1007
asV\u556A
(lp1008
g393
asV\u6F6E
(lp1009
S'chao'
p1010
asV\u83F1
(lp1011
S'ling'
p1012
asV\u54FF
(lp1013
S'ge'
p1014
asV\u777E
(lp1015
S'gao'
p1016
asV\u8386
(lp1017
g362
asV\u7A0B
(lp1018
g814
asV\u7C0F
(lp1019
g110
asV\u5290
(lp1020
S'huo'
p1021
asV\u9192
(lp1022
S'xing'
p1023
asV\u5494
(lp1024
S'ka'
p1025
aS'ka'
p1026
asV\u4F19
(lp1027
S'huo'
p1028
asV\u6E98
(lp1029
g178
asV\u821B
(lp1030
S'chuan'
p1031
asV\u7AA0
(lp1032
S'ke'
p1033
asV\u9E23
(lp1034
g180
asV\u7CA4
(lp1035
g273
asV\u5729
(lp1036
S'wei'
p1037
ag106
asV\u692D
(lp1038
S'tuo'
p1039
asV\u4FAE
(lp1040
g472
asV\u82B0
(lp1041
g391
asV\u84B4
(lp1042
g666
asV\u5BB6
(lp1043
g522
aS'jia'
p1044
aS'jie'
p1045
asV\u9EB8
(lp1046
g496
asV\u4E43
(lp1047
S'nai'
p1048
asV\u8D45
(lp1049
S'gai'
p1050
asV\u63C6
(lp1051
S'kui'
p1052
asV\u8749
(lp1053
S'chan'
p1054
asV\u5C4F
(lp1055
S'bing'
p1056
ag824
asV\u7FCE
(lp1057
g1012
asV\u8BD6
(lp1058
g1004
asV\u4ED8
(lp1059
g62
asV\u625B
(lp1060
S'gang'
p1061
aS'kang'
p1062
asV\u8DDA
(lp1063
g855
asV\u5AE0
(lp1064
g146
asV\u5CE4
(lp1065
S'jiao'
p1066
aS'jiao'
p1067
ag582
asV\u95EA
(lp1068
g950
asV\u9877
(lp1069
S'qing'
p1070
asV\u5F79
(lp1071
g148
asV\u7EF8
(lp1072
g944
asV\u517D
(lp1073
g554
asV\u6C85
(lp1074
g336
asV\u8708
(lp1075
S'wu'
p1076
asV\u788D
(lp1077
S'ai'
p1078
asV\u5012
(lp1079
S'dao'
p1080
aS'dao'
p1081
asV\u9514
(lp1082
g643
aS'ju'
p1083
asV\u6C1A
(lp1084
S'chuan'
p1085
asV\u809D
(lp1086
g425
asV\u9AA1
(lp1087
g187
asV\u9CA5
(lp1088
g796
asV\u742A
(lp1089
g476
asV\u6DAF
(lp1090
S'ya'
p1091
asV\u8E2E
(lp1092
S'dian'
p1093
ag756
asV\u67B3
(lp1094
g924
asV\u73BB
(lp1095
S'bo'
p1096
asV\u6748
(lp1097
S'cha'
p1098
ag279
asV\u7350
(lp1099
g573
asV\u54D5
(lp1100
S'hui'
p1101
asV\u7554
(lp1102
S'pan'
p1103
asV\u60DD
(lp1104
S'chang'
p1105
asV\u6E6E
(lp1106
g365
ag167
asV\u82F1
(lp1107
g66
asV\u7A76
(lp1108
g213
asV\u9EF9
(lp1109
g924
asV\u53FB
(lp1110
g48
asV\u90FD
(lp1111
g215
ag410
asV\u767E
(lp1112
S'bai'
p1113
ag398
asV\u8882
(lp1114
S'mei'
p1115
asV\u7B0B
(lp1116
g889
asV\u5594
(lp1117
S'o'
ag566
asV\u4E19
(lp1118
g1056
asV\u831B
(lp1119
S'gen'
p1120
asV\u851F
(lp1121
S'cu'
p1122
asV\u5C25
(lp1123
S'liao'
p1124
asV\u4EAE
(lp1125
g649
asV\u83B0
(lp1126
S'kan'
p1127
asV\u4F43
(lp1128
g142
aS'tian'
p1129
asV\u68C2
(lp1130
g1012
asV\u62C6
(lp1131
S'ca'
p1132
aS'chai'
p1133
asV\u7ECE
(lp1134
g148
asV\u6957
(lp1135
g262
asV\u4FD8
(lp1136
g193
asV\u86DE
(lp1137
g98
asV\u7167
(lp1138
S'zhao'
p1139
asV\u94EA
(lp1140
S'ha'
p1141
asV\u9977
(lp1142
g706
asV\u957F
(lp1143
g985
ag352
asV\u8C00
(lp1144
g270
asV\u7591
(lp1145
g599
asV\u7F22
(lp1146
g148
asV\u6CAB
(lp1147
g375
asV\u732A
(lp1148
g773
asV\u7EB7
(lp1149
g79
asV\u6C40
(lp1150
S'ting'
p1151
asV\u6A44
(lp1152
g222
asV\u86C7
(lp1153
g654
ag599
asV\u9CCB
(lp1154
S'sao'
p1155
asV\u5FCD
(lp1156
S'ren'
p1157
asV\u55D1
(lp1158
g1033
ag178
asV\u90D3
(lp1159
S'yun'
p1160
asV\u67DD
(lp1161
g752
asV\u5F62
(lp1162
S'xing'
p1163
asV\u7BE5
(lp1164
g91
asV\u5566
(lp1165
S'la'
p1166
aS'la'
p1167
asV\u9068
(lp1168
g226
asV\u8FED
(lp1169
g408
asV\u696E
(lp1170
S'chu'
p1171
asV\u6772
(lp1172
g883
asV\u5EF7
(lp1173
S'ting'
p1174
asV\u52FF
(lp1175
S'wu'
p1176
asV\u8F82
(lp1177
g110
asV\u7C0B
(lp1178
S'gui'
p1179
asV\u5490
(lp1180
g62
aS'fu'
p1181
asV\u9792
(lp1182
g582
asV\u821F
(lp1183
S'zhou'
p1184
asV\u6F2D
(lp1185
S'mang'
p1186
asV\u8EAC
(lp1187
g691
asV\u82B4
(lp1188
g1176
asV\u96BC
(lp1189
g889
asV\u8D41
(lp1190
S'lin'
p1191
asV\u6FC2
(lp1192
g306
asV\u65C6
(lp1193
g295
asV\u5C4B
(lp1194
S'wu'
p1195
asV\u9551
(lp1196
S'bang'
p1197
asV\u8DD6
(lp1198
g922
asV\u8BDA
(lp1199
g814
asV\u8C6B
(lp1200
g231
asV\u62F4
(lp1201
S'shuan'
p1202
asV\u5979
(lp1203
S'ta'
p1204
asV\u76FC
(lp1205
g1103
asV\u6C81
(lp1206
S'qin'
p1207
asV\u6089
(lp1208
g32
asV\u9510
(lp1209
g383
asV\u4F97
(lp1210
g14
ag562
aS'tong'
p1211
asV\u6C16
(lp1212
g1048
asV\u869D
(lp1213
g160
asV\u9CA1
(lp1214
g146
asV\u59A3
(lp1215
g570
asV\u9AA5
(lp1216
g391
asV\u57A7
(lp1217
g114
asV\u7426
(lp1218
g476
asV\u6DAB
(lp1219
g156
asV\u722A
(lp1220
S'zhao'
p1221
aS'zhua'
p1222
asV\u5938
(lp1223
S'kua'
p1224
asV\u903E
(lp1225
g270
asV\u6148
(lp1226
g515
asV\u54D1
(lp1227
S'ya'
p1228
asV\u66DD
(lp1229
S'bao'
p1230
ag935
asV\u5E62
(lp1231
S'chuang'
p1232
aS'zhuang'
p1233
asV\u7AE5
(lp1234
g562
asV\u5466
(lp1235
g604
asV\u70E9
(lp1236
g1101
asV\u526A
(lp1237
g601
asV\u7A7A
(lp1238
g746
aS'kong'
p1239
asV\u707E
(lp1240
S'zai'
p1241
asV\u828A
(lp1242
g176
asV\u5F8C
(lp1243
g120
asV\u7B0F
(lp1244
S'hu'
p1245
asV\u7113
(lp1246
g501
asV\u6998
(lp1247
g209
asV\u679C
(lp1248
S'guo'
p1249
asV\u5A25
(lp1250
S'e'
asV\u5029
(lp1251
g833
asV\u71A8
(lp1252
g231
ag1160
asV\u6E2D
(lp1253
g452
asV\u85B0
(lp1254
g658
asV\u83B4
(lp1255
g566
asV\u7839
(lp1256
g1078
asV\u8C41
(lp1257
g875
ag1021
ag334
asV\u6EC2
(lp1258
S'pang'
p1259
asV\u5D4B
(lp1260
g804
asV\u62CA
(lp1261
g917
asV\u76D2
(lp1262
g26
asV\u655B
(lp1263
g275
asV\u635F
(lp1264
g889
asV\u80DE
(lp1265
g820
asV\u9EE2
(lp1266
S'qu'
p1267
asV\u5BE4
(lp1268
g1176
asV\u8D6B
(lp1269
g152
asV\u65F0
(lp1270
S'gan'
p1271
asV\u63F4
(lp1272
g336
asV\u79F8
(lp1273
g171
asV\u6389
(lp1274
S'diao'
p1275
asV\u7791
(lp1276
g180
asV\u9610
(lp1277
g972
asV\u9014
(lp1278
S'tu'
p1279
asV\u631E
(lp1280
S'ta'
p1281
asV\u7D22
(lp1282
g239
asV\u99A5
(lp1283
g62
asV\u54A7
(lp1284
S'lie'
p1285
aS'lie'
p1286
aS'lie'
p1287
asV\u7726
(lp1288
S'zi'
p1289
asV\u68AF
(lp1290
S'ti'
p1291
asV\u543C
(lp1292
S'hou'
p1293
asV\u933E
(lp1294
S'zan'
p1295
asV\u6844
(lp1296
g16
aS'guang'
p1297
asV\u6248
(lp1298
g1245
asV\u5DCD
(lp1299
g144
asV\u6BD9
(lp1300
g192
asV\u845C
(lp1301
S'qia'
p1302
asV\u7FE1
(lp1303
S'fei'
p1304
asV\u5766
(lp1305
S'tan'
p1306
asV\u73E9
(lp1307
S'hang'
p1308
aS'heng'
p1309
asV\u4EEB
(lp1310
g852
asV\u6572
(lp1311
S'qiao'
p1312
asV\u797A
(lp1313
g476
asV\u95FD
(lp1314
g618
asV\u737E
(lp1315
S'huan'
p1316
asV\u818A
(lp1317
g398
asV\u5C8C
(lp1318
g11
asV\u8C17
(lp1319
g1054
asV\u7EA0
(lp1320
g213
asV\u5925
(lp1321
g1028
asV\u6731
(lp1322
g773
asV\u86B0
(lp1323
g320
asV\u80B4
(lp1324
g330
asV\u9AB8
(lp1325
S'hai'
p1326
asV\u94BC
(lp1327
g852
asV\u8349
(lp1328
S'cao'
p1329
asV\u61CA
(lp1330
g342
asV\u75D2
(lp1331
S'yang'
p1332
asV\u6C57
(lp1333
g501
aS'han'
p1334
asV\u89DA
(lp1335
g44
asV\u58E4
(lp1336
S'rang'
p1337
asV\u97E6
(lp1338
g1037
asV\u66F0
(lp1339
S'yue'
p1340
asV\u8273
(lp1341
g174
asV\u60F4
(lp1342
g909
asV\u907F
(lp1343
g192
asV\u6885
(lp1344
g804
asV\u6289
(lp1345
g302
asV\u8308
(lp1346
g515
aS'zi'
p1347
asV\u7691
(lp1348
g457
asV\u5412
(lp1349
S'zha'
p1350
aS'zha'
p1351
asV\u7095
(lp1352
S'kang'
p1353
asV\u6E16
(lp1354
S'shen'
p1355
asV\u5BA3
(lp1356
S'xuan'
p1357
asV\u98A5
(lp1358
g976
asV\u55A7
(lp1359
g1357
asV\u7626
(lp1360
g554
asV\u63B3
(lp1361
S'lu'
p1362
asV\u9E36
(lp1363
g292
asV\u77BB
(lp1364
S'zhan'
p1365
asV\u553C
(lp1366
S'sha'
p1367
asV\u4EC1
(lp1368
S'ren'
p1369
asV\u8BC3
(lp1370
S'he'
p1371
asV\u7750
(lp1372
g87
asV\u4E56
(lp1373
S'guai'
p1374
asV\u7EE1
(lp1375
g227
asV\u72E9
(lp1376
g554
asV\u86F1
(lp1377
g631
asV\u5DF7
(lp1378
S'hang'
p1379
ag315
asV\u9AF9
(lp1380
g896
asV\u94FD
(lp1381
g633
asV\u51FF
(lp1382
S'zao'
p1383
ag441
asV\u727E
(lp1384
g472
asV\u8C82
(lp1385
S'diao'
p1386
asV\u7F0B
(lp1387
g1101
asV\u7313
(lp1388
g1249
asV\u9492
(lp1389
g858
asV\u659C
(lp1390
g590
asV\u9B23
(lp1391
g614
asV\u5229
(lp1392
g91
asV\u6631
(lp1393
g231
asV\u6035
(lp1394
S'chu'
p1395
asV\u5EB6
(lp1396
g660
asV\u7A39
(lp1397
S'zhen'
p1398
asV\u52BE
(lp1399
g26
asV\u8E41
(lp1400
g929
asV\u8845
(lp1401
S'xin'
p1402
asV\u8249
(lp1403
g806
asV\u60CA
(lp1404
g247
asV\u594F
(lp1405
S'zou'
p1406
asV\u5353
(lp1407
g715
asV\u74D2
(lp1408
g1295
asV\u82DE
(lp1409
g820
asV\u5FE0
(lp1410
g235
asV\u9CE2
(lp1411
S'li'
p1412
asV\u53E8
(lp1413
S'dao'
p1414
aS'dao'
p1415
ag671
asV\u8F6B
(lp1416
S'ren'
p1417
asV\u6DEC
(lp1418
S'cui'
p1419
asV\u67F0
(lp1420
g688
asV\u547D
(lp1421
S'ming'
p1422
asV\u75FC
(lp1423
g699
asV\u917F
(lp1424
g60
aS'niang'
p1425
aS'niang'
p1426
asV\u9000
(lp1427
g645
asV\u7785
(lp1428
S'chou'
p1429
asV\u9604
(lp1430
g213
asV\u5F0A
(lp1431
g192
asV\u820C
(lp1432
g654
asV\u8E14
(lp1433
S'chuo'
p1434
asV\u7116
(lp1435
S'men'
p1436
asV\u771A
(lp1437
S'sheng'
p1438
asV\u5E9F
(lp1439
g948
asV\u6322
(lp1440
g359
ag360
asV\u70AB
(lp1441
g625
asV\u6F2A
(lp1442
g9
asV\u952E
(lp1443
g262
asV\u5830
(lp1444
g174
asV\u7CB3
(lp1445
g247
asV\u9B32
(lp1446
g85
ag91
asV\u8136
(lp1447
g187
asV\u8D3E
(lp1448
g597
ag359
asV\u94C3
(lp1449
g1012
asV\u86CF
(lp1450
g744
asV\u6850
(lp1451
g562
asV\u6E54
(lp1452
g117
asV\u5156
(lp1453
g694
asV\u575A
(lp1454
g117
asV\u7BDD
(lp1455
g887
asV\u67E5
(lp1456
g662
ag1350
asV\u7B72
(lp1457
S'shao'
p1458
asV\u8BFD
(lp1459
g1304
asV\u4EFF
(lp1460
S'fang'
p1461
asV\u5080
(lp1462
S'gui'
p1463
aS'kui'
p1464
asV\u7403
(lp1465
g802
asV\u9986
(lp1466
S'guan'
p1467
asV\u5C88
(lp1468
g1091
asV\u9F8A
(lp1469
S'chuo'
p1470
asV\u660F
(lp1471
S'hun'
p1472
asV\u6C13
(lp1473
S'mang'
p1474
ag129
asV\u4E94
(lp1475
g472
asV\u7A9C
(lp1476
g1000
asV\u9E1F
(lp1477
S'diao'
p1478
aS'niao'
p1479
asV\u60A0
(lp1480
g604
asV\u7F35
(lp1481
S'zuan'
p1482
asV\u9EB4
(lp1483
g1267
asV\u6539
(lp1484
S'gai'
p1485
asV\u84B8
(lp1486
S'zheng'
p1487
asV\u5443
(lp1488
S'e'
aS'e'
asV\u73C2
(lp1489
g1033
asV\u79C6
(lp1490
g222
asV\u7FCA
(lp1491
g148
asV\u65CE
(lp1492
S'ni'
p1493
asV\u6BD2
(lp1494
g681
asV\u5ADC
(lp1495
g573
asV\u89E6
(lp1496
g1395
asV\u8FEA
(lp1497
S'di'
p1498
asV\u72EC
(lp1499
g681
asV\u7EF4
(lp1500
g1037
asV\u8E7F
(lp1501
S'cuan'
p1502
asV\u9704
(lp1503
g227
asV\u5806
(lp1504
S'dui'
p1505
aS'zui'
p1506
asV\u7C89
(lp1507
S'fen'
p1508
asV\u830C
(lp1509
g71
asV\u8910
(lp1510
g152
asV\u9499
(lp1511
g324
asV\u9A9D
(lp1512
S'liu'
p1513
asV\u80A1
(lp1514
g597
asV\u6222
(lp1515
g11
asV\u63B7
(lp1516
g52
ag53
asV\u8036
(lp1517
S'ye'
p1518
aS'ye'
p1519
asV\u69BB
(lp1520
g1281
asV\u634C
(lp1521
g388
asV\u4ED5
(lp1522
S'shi'
p1523
asV\u9558
(lp1524
g616
asV\u5C5E
(lp1525
g356
ag880
asV\u8160
(lp1526
g812
asV\u8764
(lp1527
g802
ag320
asV\u51EB
(lp1528
g193
asV\u57EF
(lp1529
S'an'
p1530
asV\u5DF3
(lp1531
g866
asV\u6076
(lp1532
S'e'
aS'e'
ag1195
ag1176
asV\u667A
(lp1533
g53
asV\u6C7E
(lp1534
S'fen'
p1535
asV\u5180
(lp1536
g391
asV\u5784
(lp1537
S'long'
p1538
asV\u9886
(lp1539
S'ling'
p1540
asV\u848E
(lp1541
S'pai'
p1542
asV\u4F94
(lp1543
g24
asV\u7B9C
(lp1544
g746
asV\u6DA8
(lp1545
g352
aS'zhang'
p1546
asV\u5AB2
(lp1547
g828
asV\u6A3D
(lp1548
S'zun'
p1549
asV\u8BBC
(lp1550
g468
asV\u9041
(lp1551
g93
asV\u5543
(lp1552
S'ken'
p1553
asV\u72C2
(lp1554
S'kuang'
p1555
asV\u9645
(lp1556
g391
asV\u7ECA
(lp1557
g140
asV\u64CE
(lp1558
S'qing'
p1559
asV\u7357
(lp1560
g302
asV\u795B
(lp1561
g1267
asV\u7F5F
(lp1562
g597
asV\u9CDE
(lp1563
g28
asV\u6563
(lp1564
S'san'
p1565
aS'san'
p1566
asV\u6B67
(lp1567
g476
asV\u79F0
(lp1568
S'chen'
p1569
ag744
aS'cheng'
p1570
asV\u8377
(lp1571
g26
ag152
asV\u897B
(lp1572
g1103
asV\u8F7F
(lp1573
g1067
asV\u800C
(lp1574
S'er'
p1575
asV\u6D95
(lp1576
S'ti'
p1577
asV\u8C14
(lp1578
S'e'
asV\u7316
(lp1579
g34
asV\u5A9B
(lp1580
g336
aS'yuan'
p1581
asV\u751A
(lp1582
S'shen'
p1583
aS'shen'
p1584
asV\u8FA9
(lp1585
g401
asV\u6D2A
(lp1586
S'hong'
p1587
asV\u502C
(lp1588
g715
asV\u7EB3
(lp1589
g721
asV\u5C34
(lp1590
g425
asV\u8336
(lp1591
g662
asV\u853A
(lp1592
g1191
asV\u6CBF
(lp1593
g969
ag174
asV\u53C1
(lp1594
S'san'
p1595
asV\u55C5
(lp1596
g256
asV\u5FC9
(lp1597
g1414
asV\u82CB
(lp1598
g36
asV\u6A50
(lp1599
S'tuo'
p1600
asV\u6C54
(lp1601
g12
asV\u5356
(lp1602
S'mai'
p1603
asV\u63E1
(lp1604
S'wo'
p1605
asV\u65E5
(lp1606
S'ri'
p1607
asV\u6376
(lp1608
g100
asV\u87F9
(lp1609
g310
asV\u7603
(lp1610
g784
asV\u5484
(lp1611
S'duo'
p1612
asV\u620B
(lp1613
g117
asV\u640F
(lp1614
g398
asV\u9017
(lp1615
S'dou'
p1616
asV\u789C
(lp1617
S'chen'
p1618
asV\u62A0
(lp1619
S'kou'
p1620
asV\u64A4
(lp1621
S'che'
p1622
asV\u90AC
(lp1623
g1195
asV\u57AE
(lp1624
S'kua'
p1625
asV\u7B31
(lp1626
g787
asV\u9AB0
(lp1627
S'tou'
p1628
asV\u59B2
(lp1629
g443
asV\u9CB4
(lp1630
g699
asV\u693D
(lp1631
S'chuan'
p1632
asV\u88BC
(lp1633
g964
asV\u9545
(lp1634
g804
asV\u7BC6
(lp1635
S'zhuan'
p1636
asV\u4E53
(lp1637
g1259
asV\u8D55
(lp1638
S'dan'
p1639
asV\u93D6
(lp1640
g226
asV\u6867
(lp1641
S'gui'
p1642
ag1101
asV\u8BE6
(lp1643
g588
asV\u4EE8
(lp1644
S'sa'
p1645
asV\u8DEA
(lp1646
g1642
asV\u516D
(lp1647
g253
ag110
asV\u70EC
(lp1648
g902
asV\u5B71
(lp1649
g836
ag1054
asV\u9E73
(lp1650
g156
asV\u68FC
(lp1651
g1535
asV\u7281
(lp1652
g146
asV\u9504
(lp1653
g42
asV\u5A06
(lp1654
S'rao'
p1655
aS'rao'
p1656
asV\u5C0A
(lp1657
g1549
asV\u608D
(lp1658
g1334
asV\u6A91
(lp1659
g763
asV\u5197
(lp1660
S'rong'
p1661
asV\u9699
(lp1662
g427
asV\u5B9B
(lp1663
g750
asV\u741A
(lp1664
g643
asV\u989D
(lp1665
S'e'
asV\u82A1
(lp1666
g833
asV\u73AB
(lp1667
g804
asV\u6C2A
(lp1668
g178
asV\u75AF
(lp1669
g620
asV\u962E
(lp1670
g960
asV\u5D34
(lp1671
S'wai'
p1672
ag144
asV\u61B7
(lp1673
g1395
asV\u8236
(lp1674
g398
asV\u6DBF
(lp1675
g715
asV\u5EC9
(lp1676
g306
asV\u614C
(lp1677
S'huang'
p1678
asV\u85CF
(lp1679
S'cang'
p1680
aS'zang'
p1681
asV\u8FD3
(lp1682
S'ya'
p1683
asV\u6D54
(lp1684
g290
asV\u5256
(lp1685
S'pou'
p1686
asV\u5E5E
(lp1687
g193
asV\u8360
(lp1688
g391
ag476
asV\u8564
(lp1689
S'rui'
p1690
asV\u6EE9
(lp1691
S'tan'
p1692
asV\u8F68
(lp1693
g1179
asV\u53EB
(lp1694
g1067
asV\u90ED
(lp1695
g541
asV\u55EF
(lp1696
S'n'
aS'n'
aS'n'
aS'ng'
p1697
aS'ng'
p1698
aS'ng'
p1699
asV\u6276
(lp1700
g193
asV\u86F9
(lp1701
S'yong'
p1702
asV\u647A
(lp1703
g656
asV\u6E7E
(lp1704
S'wan'
p1705
asV\u9082
(lp1706
g310
asV\u5584
(lp1707
S'shan'
p1708
asV\u9A86
(lp1709
g993
asV\u5F88
(lp1710
S'hen'
p1711
asV\u6F13
(lp1712
g146
asV\u8892
(lp1713
g1306
asV\u8723
(lp1714
S'qiang'
p1715
asV\u65A4
(lp1716
S'jin'
p1717
asV\u683D
(lp1718
g1241
asV\u70C2
(lp1719
S'lan'
p1720
asV\u5947
(lp1721
g189
ag476
asV\u9E49
(lp1722
g472
asV\u7CCA
(lp1723
S'hu'
p1724
ag18
ag1245
asV\u804D
(lp1725
S'ning'
p1726
asV\u4F53
(lp1727
g1291
aS'ti'
p1728
asV\u68D2
(lp1729
g1197
asV\u8C55
(lp1730
S'shi'
p1731
asV\u57D8
(lp1732
g796
asV\u7B5B
(lp1733
S'shai'
p1734
asV\u59DC
(lp1735
g304
asV\u4FE8
(lp1736
g694
asV\u956F
(lp1737
g536
asV\u5D06
(lp1738
g746
asV\u6D91
(lp1739
g791
asV\u8C10
(lp1740
g590
asV\u5C9B
(lp1741
g1080
asV\u791E
(lp1742
g129
asV\u4EA7
(lp1743
g972
asV\u562C
(lp1744
S'chuai'
p1745
aS'zhuai'
p1746
aS'zuo'
p1747
asV\u72AF
(lp1748
S'fan'
p1749
asV\u78B3
(lp1750
S'tan'
p1751
asV\u5A34
(lp1752
S'xian'
p1753
asV\u6CBB
(lp1754
g53
asV\u833A
(lp1755
S'chong'
p1756
asV\u664C
(lp1757
g114
asV\u82CF
(lp1758
S'su'
p1759
asV\u6C50
(lp1760
g32
asV\u5556
(lp1761
g675
asV\u9058
(lp1762
g760
asV\u535A
(lp1763
g398
asV\u9E5C
(lp1764
g1176
asV\u8868
(lp1765
g158
asV\u97ED
(lp1766
S'jiu'
p1767
asV\u716E
(lp1768
g880
asV\u58F3
(lp1769
S'ke'
p1770
ag873
asV\u7F72
(lp1771
g356
asV\u637A
(lp1772
g721
asV\u8FFD
(lp1773
S'zhui'
p1774
asV\u5480
(lp1775
g429
aS'zui'
p1776
asV\u640B
(lp1777
S'chuai'
p1778
asV\u620F
(lp1779
g1724
ag427
asV\u6813
(lp1780
g1202
asV\u9617
(lp1781
g1129
asV\u62A4
(lp1782
g1245
asV\u68A8
(lp1783
g146
asV\u772D
(lp1784
S'sui'
p1785
asV\u9CB0
(lp1786
S'zou'
p1787
asV\u9541
(lp1788
S'mei'
p1789
asV\u5043
(lp1790
g694
asV\u6FD2
(lp1791
g102
asV\u6063
(lp1792
g1289
asV\u946B
(lp1793
g684
asV\u576D
(lp1794
g627
asV\u5B75
(lp1795
g496
asV\u7481
(lp1796
S'cong'
p1797
asV\u9500
(lp1798
g227
asV\u5C06
(lp1799
g304
ag587
ag1715
asV\u7889
(lp1800
g1386
asV\u9099
(lp1801
g1474
asV\u9E9D
(lp1802
g5
asV\u84A1
(lp1803
g1197
asV\u82A5
(lp1804
g324
ag708
asV\u4FA7
(lp1805
g377
ag266
aS'zhai'
p1806
asV\u6C26
(lp1807
S'hai'
p1808
asV\u75AB
(lp1809
g148
asV\u6A2A
(lp1810
g1309
aS'heng'
p1811
asV\u572C
(lp1812
g1195
asV\u73AF
(lp1813
g799
asV\u902E
(lp1814
g437
aS'dai'
p1815
asV\u79B3
(lp1816
S'rang'
p1817
ag1337
asV\u9E32
(lp1818
g898
asV\u5B34
(lp1819
S'ying'
p1820
asV\u67B7
(lp1821
g522
asV\u4F3C
(lp1822
g1523
ag866
asV\u6BBF
(lp1823
g142
asV\u54C1
(lp1824
S'pin'
p1825
asV\u7540
(lp1826
g192
asV\u7948
(lp1827
g476
asV\u674C
(lp1828
g1176
asV\u83CF
(lp1829
g26
asV\u5456
(lp1830
g91
asV\u70D9
(lp1831
S'lao'
p1832
ag993
asV\u7EDD
(lp1833
g302
asV\u585E
(lp1834
S'sai'
p1835
aS'sai'
p1836
aS'se'
p1837
asV\u62E5
(lp1838
g539
asV\u8364
(lp1839
g1472
ag658
asV\u55EB
(lp1840
g108
asV\u53EF
(lp1841
S'ke'
p1842
ag178
asV\u5580
(lp1843
g1025
asV\u5384
(lp1844
S'e'
asV\u7F07
(lp1845
S'ti'
p1846
asV\u9C86
(lp1847
g824
asV\u5988
(lp1848
g556
asV\u9A8A
(lp1849
g146
asV\u5019
(lp1850
g120
asV\u7198
(lp1851
g480
asV\u5E1D
(lp1852
g478
asV\u9B1F
(lp1853
g799
asV\u69A8
(lp1854
g1351
asV\u762D
(lp1855
g56
asV\u5143
(lp1856
g336
asV\u76C2
(lp1857
g270
asV\u94D6
(lp1858
g814
asV\u98DE
(lp1859
S'fei'
p1860
asV\u956B
(lp1861
S'deng'
p1862
asV\u77EC
(lp1863
S'cuo'
p1864
asV\u5C71
(lp1865
g855
asV\u5A75
(lp1866
g1054
asV\u9600
(lp1867
S'fa'
p1868
asV\u9004
(lp1869
S'pang'
p1870
asV\u840C
(lp1871
g129
asV\u6995
(lp1872
g592
asV\u711A
(lp1873
g1535
asV\u589F
(lp1874
g106
asV\u7B1E
(lp1875
g297
asV\u8BA9
(lp1876
S'rang'
p1877
asV\u542C
(lp1878
g1151
asV\u70AF
(lp1879
S'jiong'
p1880
asV\u7AB3
(lp1881
g271
asV\u64B7
(lp1882
g590
asV\u6EBB
(lp1883
g1204
asV\u7640
(lp1884
g89
asV\u9CC7
(lp1885
g89
asV\u86CB
(lp1886
g675
asV\u4FD1
(lp1887
g1702
asV\u6854
(lp1888
g172
ag1083
asV\u73D9
(lp1889
S'gong'
p1890
asV\u515A
(lp1891
S'dang'
p1892
asV\u56EB
(lp1893
g18
asV\u95ED
(lp1894
g192
asV\u83F9
(lp1895
S'zu'
p1896
asV\u4EFB
(lp1897
g1369
ag1417
asV\u8DFD
(lp1898
g391
asV\u7C07
(lp1899
g1122
asV\u9F86
(lp1900
S'tiao'
p1901
asV\u998A
(lp1902
g637
asV\u600F
(lp1903
S'yang'
p1904
asV\u838E
(lp1905
g704
ag629
asV\u5319
(lp1906
g71
aS'shi'
p1907
asV\u7C9C
(lp1908
S'tiao'
p1909
asV\u8223
(lp1910
S'yi'
p1911
asV\u8C27
(lp1912
g868
asV\u752D
(lp1913
S'beng'
p1914
asV\u94AC
(lp1915
g1028
asV\u53AE
(lp1916
g292
asV\u7F31
(lp1917
S'qian'
p1918
asV\u6339
(lp1919
g148
asV\u82B8
(lp1920
S'yun'
p1921
asV\u6D3D
(lp1922
S'qia'
p1923
asV\u5243
(lp1924
g1577
asV\u75C2
(lp1925
g522
asV\u9B49
(lp1926
S'liang'
p1927
asV\u63CE
(lp1928
g1357
asV\u7457
(lp1929
g1581
asV\u52D8
(lp1930
g733
asV\u6263
(lp1931
S'kou'
p1932
asV\u8FE6
(lp1933
g522
asV\u556D
(lp1934
g1636
asV\u5F71
(lp1935
g412
asV\u7EF0
(lp1936
S'chao'
p1937
ag1470
asV\u9A73
(lp1938
g398
asV\u78F4
(lp1939
g1862
asV\u6CFC
(lp1940
g399
asV\u887F
(lp1941
g1717
asV\u9700
(lp1942
g106
asV\u7085
(lp1943
g1642
ag1880
asV\u9104
(lp1944
S'juan'
p1945
asV\u5E06
(lp1946
S'fan'
p1947
asV\u9B08
(lp1948
g118
ag907
asV\u850C
(lp1949
g791
asV\u701A
(lp1950
g1334
asV\u7A1E
(lp1951
g1033
asV\u80A5
(lp1952
g639
asV\u682A
(lp1953
g773
asV\u552C
(lp1954
S'hu'
p1955
aS'xia'
p1956
asV\u5934
(lp1957
g1628
asV\u8A3E
(lp1958
g516
ag1347
asV\u7740
(lp1959
g575
aS'zhao'
p1960
aS'zhe'
p1961
ag536
asV\u5AC9
(lp1962
g11
asV\u87CB
(lp1963
g32
asV\u654C
(lp1964
g1498
asV\u4ED1
(lp1965
S'lun'
p1966
asV\u8BD3
(lp1967
g284
asV\u6954
(lp1968
g611
asV\u72D9
(lp1969
g643
asV\u505A
(lp1970
g441
asV\u8760
(lp1971
g193
asV\u4E66
(lp1972
g445
asV\u94ED
(lp1973
g180
asV\u51EF
(lp1974
S'kai'
p1975
asV\u726E
(lp1976
g262
asV\u6676
(lp1977
g247
asV\u82F9
(lp1978
S'pin'
p1979
ag824
asV\u607A
(lp1980
g1975
asV\u7303
(lp1981
g486
asV\u5B88
(lp1982
S'shou'
p1983
asV\u670B
(lp1984
S'peng'
p1985
asV\u988A
(lp1986
g631
asV\u610F
(lp1987
g148
asV\u828E
(lp1988
S'xiong'
p1989
asV\u9517
(lp1990
S'zang'
p1991
aS'zhe'
p1992
asV\u5219
(lp1993
g717
asV\u5C1D
(lp1994
g985
asV\u8D27
(lp1995
g334
asV\u83B8
(lp1996
g320
asV\u6C3D
(lp1997
S'tun'
p1998
asV\u8DBC
(lp1999
g601
asV\u5343
(lp2000
g176
asV\u5D47
(lp2001
g189
asV\u7EC6
(lp2002
g427
asV\u78CA
(lp2003
g73
asV\u62CE
(lp2004
S'ling'
p2005
asV\u8E51
(lp2006
g108
asV\u53D8
(lp2007
g401
asV\u795F
(lp2008
S'sui'
p2009
asV\u6363
(lp2010
g1080
asV\u916F
(lp2011
g924
asV\u7FF0
(lp2012
g1334
asV\u63F8
(lp2013
g1350
asV\u8F7B
(lp2014
S'qing'
p2015
asV\u6DFC
(lp2016
g299
asV\u897F
(lp2017
g32
asV\u7981
(lp2018
g1717
ag902
asV\u5106
(lp2019
S'jing'
p2020
asV\u570A
(lp2021
g2015
asV\u6B8D
(lp2022
S'piao'
p2023
asV\u8010
(lp2024
g688
asV\u6795
(lp2025
g1398
asV\u7F1A
(lp2026
g62
asV\u6B22
(lp2027
g1316
asV\u6126
(lp2028
S'kui'
p2029
asV\u672A
(lp2030
g452
asV\u7EAF
(lp2031
g767
asV\u5634
(lp2032
g1776
asV\u8936
(lp2033
g1992
asV\u60BB
(lp2034
S'xing'
p2035
asV\u7840
(lp2036
g1171
asV\u9CC3
(lp2037
g1835
asV\u5FC5
(lp2038
g192
asV\u55C9
(lp2039
g791
asV\u6050
(lp2040
g747
asV\u84D3
(lp2041
g530
asV\u6654
(lp2042
S'ye'
p2043
asV\u5956
(lp2044
S'jiang'
p2045
asV\u65E9
(lp2046
S'zao'
p2047
asV\u58EB
(lp2048
g1523
asV\u7D6E
(lp2049
S'xu'
p2050
asV\u54F3
(lp2051
g1350
asV\u97F5
(lp2052
g1160
asV\u8DF9
(lp2053
g834
asV\u6F7A
(lp2054
g1054
asV\u83FD
(lp2055
g445
asV\u5880
(lp2056
g71
asV\u5E84
(lp2057
S'zhuang'
p2058
asV\u680B
(lp2059
g14
asV\u6413
(lp2060
g396
asV\u8392
(lp2061
g429
asV\u7C98
(lp2062
g810
ag1365
asV\u901B
(lp2063
g1297
asV\u531D
(lp2064
S'za'
p2065
asV\u961F
(lp2066
S'dui'
p2067
asV\u8C23
(lp2068
g330
asV\u4F25
(lp2069
g34
asV\u7131
(lp2070
g174
asV\u90B0
(lp2071
S'tai'
p2072
asV\u7735
(lp2073
g297
asV\u6D39
(lp2074
g799
asV\u633D
(lp2075
g750
asV\u9549
(lp2076
g85
asV\u4E4F
(lp2077
g1868
asV\u8151
(lp2078
g917
asV\u63D2
(lp2079
g1098
asV\u7A57
(lp2080
g2009
asV\u8BE2
(lp2081
g290
asV\u4EE4
(lp2082
g1012
ag1540
aS'ling'
p2083
asV\u6267
(lp2084
g922
asV\u87EA
(lp2085
g1101
asV\u5171
(lp2086
g691
ag692
asV\u76F4
(lp2087
g922
asV\u6CF8
(lp2088
g50
asV\u62FC
(lp2089
S'pin'
p2090
asV\u867F
(lp2091
S'chai'
p2092
asV\u9508
(lp2093
g256
asV\u8110
(lp2094
g476
asV\u5B97
(lp2095
g519
asV\u7816
(lp2096
S'zhuan'
p2097
asV\u519B
(lp2098
S'jun'
p2099
asV\u6026
(lp2100
S'peng'
p2101
asV\u7FAF
(lp2102
g172
asV\u75B3
(lp2103
g425
asV\u6BB7
(lp2104
g365
ag167
aS'yin'
p2105
asV\u8E3A
(lp2106
g262
asV\u58C1
(lp2107
g192
asV\u7940
(lp2108
g866
asV\u7F44
(lp2109
g580
asV\u54C9
(lp2110
g1241
asV\u7548
(lp2111
g1749
asV\u89CB
(lp2112
S'xi'
p2113
asV\u6B4C
(lp2114
g964
asV\u85D3
(lp2115
g91
ag486
asV\u7CD9
(lp2116
S'cao'
p2117
asV\u6EE5
(lp2118
g1720
asV\u8568
(lp2119
g302
asV\u9AED
(lp2120
g516
asV\u55F3
(lp2121
S'ai'
p2122
ag1078
asV\u7272
(lp2123
S'sheng'
p2124
asV\u6876
(lp2125
g1211
asV\u9A82
(lp2126
g558
asV\u5F84
(lp2127
S'jing'
p2128
asV\u5588
(lp2129
g171
asV\u690B
(lp2130
g510
asV\u6F0F
(lp2131
S'lou'
p2132
asV\u8292
(lp2133
g1474
aS'wang'
p2134
asV\u521D
(lp2135
S'chu'
p2136
asV\u8D23
(lp2137
g717
asV\u4E25
(lp2138
g969
asV\u8327
(lp2139
g601
asV\u52B2
(lp2140
g902
ag2128
asV\u7635
(lp2141
g134
asV\u97B4
(lp2142
g530
asV\u8DB8
(lp2143
S'dun'
p2144
asV\u4EBA
(lp2145
g1369
asV\u623D
(lp2146
g1245
asV\u83BC
(lp2147
g767
asV\u9E45
(lp2148
S'e'
asV\u5347
(lp2149
g2124
asV\u76CA
(lp2150
g148
asV\u4F4F
(lp2151
g233
asV\u62D2
(lp2152
g209
asV\u94DE
(lp2153
g1275
asV\u6D63
(lp2154
g136
asV\u6367
(lp2155
S'peng'
p2156
asV\u996B
(lp2157
g231
asV\u9573
(lp2158
g56
asV\u817B
(lp2159
g940
asV\u5306
(lp2160
g1797
asV\u9608
(lp2161
g231
asV\u698D
(lp2162
g310
asV\u4F0E
(lp2163
g391
asV\u8210
(lp2164
g1523
asV\u9F99
(lp2165
g450
asV\u529B
(lp2166
g91
asV\u8BA1
(lp2167
g391
asV\u5230
(lp2168
g1081
asV\u5434
(lp2169
g1076
asV\u4E38
(lp2170
g288
asV\u62BB
(lp2171
S'chen'
p2172
asV\u8D3A
(lp2173
g152
asV\u873E
(lp2174
g1249
asV\u5DC5
(lp2175
S'dian'
p2176
asV\u90C7
(lp2177
g799
ag290
asV\u684C
(lp2178
g715
asV\u6454
(lp2179
S'shuai'
p2180
asV\u9E58
(lp2181
g597
ag18
asV\u575E
(lp2182
g1176
asV\u6BE1
(lp2183
g1365
asV\u67E9
(lp2184
S'jiu'
p2185
asV\u5AEB
(lp2186
g282
asV\u7F6E
(lp2187
g53
asV\u7172
(lp2188
g820
asV\u95F5
(lp2189
g618
asV\u8FF9
(lp2190
g189
asV\u677E
(lp2191
S'song'
p2192
asV\u6C0F
(lp2193
g1523
ag52
asV\u8F8E
(lp2194
g516
asV\u6613
(lp2195
g148
asV\u709C
(lp2196
g806
asV\u6AA0
(lp2197
g1559
asV\u8E23
(lp2198
g398
asV\u6CA4
(lp2199
g584
aS'ou'
p2200
asV\u8027
(lp2201
S'lou'
p2202
asV\u66A8
(lp2203
g391
asV\u5FAE
(lp2204
g144
asV\u7331
(lp2205
S'nao'
p2206
asV\u51B2
(lp2207
g1756
aS'chong'
p2208
asV\u7535
(lp2209
g142
asV\u94B4
(lp2210
g597
asV\u80BC
(lp2211
g2020
asV\u9B41
(lp2212
g1052
asV\u5047
(lp2213
g359
aS'jia'
p2214
asV\u75CA
(lp2215
g907
asV\u8351
(lp2216
g1846
ag599
asV\u61D2
(lp2217
S'lan'
p2218
asV\u7857
(lp2219
g1312
asV\u725B
(lp2220
S'niu'
p2221
asV\u745F
(lp2222
g1837
asV\u6067
(lp2223
S'nv'
p2224
asV\u78EC
(lp2225
g580
asV\u5371
(lp2226
g144
asV\u72F0
(lp2227
g1487
asV\u5575
(lp2228
S'bo'
p2229
asV\u74F4
(lp2230
g1012
asV\u8877
(lp2231
g235
asV\u7A81
(lp2232
S'tu'
p2233
asV\u5802
(lp2234
S'tang'
p2235
asV\u5206
(lp2236
g79
ag169
asV\u9708
(lp2237
g295
asV\u540A
(lp2238
g1275
asV\u4E0E
(lp2239
g270
ag271
ag231
asV\u6291
(lp2240
g148
asV\u6495
(lp2241
g292
asV\u5997
(lp2242
g902
asV\u909D
(lp2243
S'kuang'
p2244
asV\u559F
(lp2245
g2029
asV\u4FA3
(lp2246
g182
asV\u86A9
(lp2247
g297
asV\u7BAB
(lp2248
g227
asV\u642A
(lp2249
g2235
asV\u77B3
(lp2250
g562
asV\u69B7
(lp2251
g20
asV\u4F38
(lp2252
S'shen'
p2253
asV\u5AC1
(lp2254
g2214
asV\u91C7
(lp2255
S'cai'
p2256
aS'cai'
p2257
asV\u8BCB
(lp2258
g489
asV\u8DCF
(lp2259
g522
asV\u6350
(lp2260
g344
asV\u87D3
(lp2261
g315
asV\u7ED9
(lp2262
S'gei'
p2263
ag205
asV\u6CE5
(lp2264
g627
ag940
asV\u8D64
(lp2265
g758
asV\u66E9
(lp2266
S'nang'
p2267
asV\u5DEF
(lp2268
g802
asV\u94F5
(lp2269
g1530
asV\u80FD
(lp2270
S'neng'
p2271
asV\u667E
(lp2272
g649
asV\u7F03
(lp2273
g314
asV\u9882
(lp2274
g468
asV\u948A
(lp2275
g575
asV\u5E19
(lp2276
g53
asV\u951F
(lp2277
S'kun'
p2278
asV\u6DA4
(lp2279
g1498
asV\u67A8
(lp2280
g814
asV\u782D
(lp2281
S'bian'
p2282
asV\u7231
(lp2283
g1078
asV\u50B2
(lp2284
g342
asV\u7435
(lp2285
g207
asV\u9649
(lp2286
g1163
asV\u884D
(lp2287
g694
asV\u7957
(lp2288
g52
asV\u5FD8
(lp2289
g2134
aS'wang'
p2290
asV\u88E2
(lp2291
g306
asV\u6167
(lp2292
g1101
asV\u82E6
(lp2293
S'ku'
p2294
asV\u9773
(lp2295
g902
asV\u5475
(lp2296
S'a'
aS'a'
aS'a'
aS'a'
aS'a'
ag1371
ag1033
asV\u75F4
(lp2297
g297
asV\u837B
(lp2298
g1498
asV\u5F02
(lp2299
g148
asV\u7B85
(lp2300
g192
asV\u5506
(lp2301
g629
asV\u6F8D
(lp2302
g660
asV\u8E0C
(lp2303
g944
asV\u6591
(lp2304
g532
asV\u8214
(lp2305
S'tian'
p2306
asV\u5E97
(lp2307
g142
asV\u9999
(lp2308
g314
asV\u549B
(lp2309
g1726
asV\u529F
(lp2310
g691
asV\u8BA5
(lp2311
g189
asV\u632A
(lp2312
S'nuo'
p2313
asV\u992E
(lp2314
S'tie'
p2315
asV\u70B3
(lp2316
g1056
asV\u9732
(lp2317
g2132
ag110
asV\u6EB7
(lp2318
S'hun'
p2319
asV\u8D36
(lp2320
g2244
asV\u62BF
(lp2321
g618
asV\u813E
(lp2322
g207
asV\u7C40
(lp2323
S'zhou'
p2324
asV\u5BC5
(lp2325
S'yin'
p2326
asV\u96C7
(lp2327
g699
asV\u51C9
(lp2328
g510
ag649
asV\u6254
(lp2329
S'reng'
p2330
asV\u5B5A
(lp2331
g193
asV\u6DE1
(lp2332
g675
asV\u95F1
(lp2333
g1037
asV\u50F3
(lp2334
g791
asV\u4EF7
(lp2335
g2214
ag708
ag1045
asV\u5088
(lp2336
g91
asV\u4E8C
(lp2337
S'er'
p2338
asV\u5919
(lp2339
g791
asV\u7898
(lp2340
g1093
asV\u8627
(lp2341
g898
asV\u60A8
(lp2342
S'nin'
p2343
asV\u7F2D
(lp2344
g498
asV\u59AE
(lp2345
S'ni'
p2346
asV\u7531
(lp2347
g320
asV\u94B0
(lp2348
g231
asV\u57B2
(lp2349
g1975
asV\u6939
(lp2350
g1584
ag150
asV\u673D
(lp2351
S'xiu'
p2352
asV\u9B45
(lp2353
g1115
asV\u9149
(lp2354
S'you'
p2355
asV\u73CA
(lp2356
g855
asV\u69CE
(lp2357
g662
asV\u67D2
(lp2358
g528
asV\u745B
(lp2359
g66
asV\u725F
(lp2360
g24
ag852
asV\u6863
(lp2361
g406
asV\u8FE2
(lp2362
g1901
asV\u83EA
(lp2363
g406
asV\u5F6D
(lp2364
g1985
asV\u9A6F
(lp2365
g290
asV\u5375
(lp2366
S'luan'
p2367
asV\u72F4
(lp2368
g192
asV\u66FC
(lp2369
g616
asV\u827F
(lp2370
g1048
asV\u5E02
(lp2371
g1523
asV\u5406
(lp2372
S'yao'
p2373
asV\u7089
(lp2374
g50
asV\u520A
(lp2375
g733
asV\u6491
(lp2376
g744
asV\u6295
(lp2377
g1628
asV\u8314
(lp2378
g1820
asV\u5F97
(lp2379
S'de'
p2380
aS'de'
p2381
aS'dei'
p2382
asV\u7C16
(lp2383
S'duan'
p2384
asV\u7A1A
(lp2385
g53
asV\u539F
(lp2386
g336
asV\u6426
(lp2387
S'nuo'
p2388
asV\u80A9
(lp2389
g117
asV\u622A
(lp2390
g172
asV\u5530
(lp2391
S'shua'
p2392
asV\u71B3
(lp2393
g616
asV\u9632
(lp2394
S'fang'
p2395
asV\u8C36
(lp2396
g1569
asV\u5CC1
(lp2397
S'mao'
p2398
asV\u8DCB
(lp2399
S'ba'
p2400
asV\u4ECD
(lp2401
S'reng'
p2402
asV\u8BCF
(lp2403
g1139
asV\u78D9
(lp2404
g64
asV\u5A5A
(lp2405
g1472
asV\u6CE1
(lp2406
S'pao'
p2407
aS'pao'
p2408
asV\u8D60
(lp2409
g518
asV\u60E9
(lp2410
g814
asV\u5DEB
(lp2411
g1195
asV\u786E
(lp2412
g20
asV\u94F1
(lp2413
g9
asV\u51F3
(lp2414
g1862
asV\u6C76
(lp2415
S'wen'
p2416
asV\u88F9
(lp2417
g1249
asV\u9E82
(lp2418
g205
asV\u5B84
(lp2419
g1179
asV\u7707
(lp2420
g299
asV\u9486
(lp2421
g327
asV\u5188
(lp2422
g1061
asV\u6D0B
(lp2423
S'yang'
p2424
asV\u9F17
(lp2425
g220
asV\u5819
(lp2426
g167
asV\u951B
(lp2427
g622
asV\u6DA0
(lp2428
g1037
asV\u61A8
(lp2429
g237
asV\u7235
(lp2430
g302
asV\u6839
(lp2431
S'gen'
p2432
asV\u7EC2
(lp2433
g193
asV\u5747
(lp2434
g2099
ag1160
asV\u8451
(lp2435
g620
ag775
asV\u7F57
(lp2436
S'luo'
p2437
ag187
aS'luo'
p2438
asV\u9CD6
(lp2439
g891
asV\u59D8
(lp2440
g2090
asV\u755B
(lp2441
g1398
asV\u6963
(lp2442
g804
asV\u84E6
(lp2443
g375
asV\u5471
(lp2444
g44
ag97
aS'gua'
p2445
asV\u75F0
(lp2446
g7
asV\u8F77
(lp2447
g1724
asV\u857B
(lp2448
g1587
aS'hong'
p2449
asV\u7F81
(lp2450
g189
asV\u5D02
(lp2451
g165
asV\u7985
(lp2452
g1054
ag1708
asV\u5706
(lp2453
g336
asV\u7389
(lp2454
g231
asV\u8C0C
(lp2455
g112
asV\u8014
(lp2456
g1347
asV\u5C97
(lp2457
S'gang'
p2458
asV\u7F16
(lp2459
g2282
asV\u731E
(lp2460
g1002
asV\u6726
(lp2461
g129
asV\u83A9
(lp2462
g193
ag2023
asV\u7EAB
(lp2463
g1417
asV\u5C2C
(lp2464
S'ga'
p2465
asV\u9532
(lp2466
g312
asV\u53C9
(lp2467
g1098
ag662
aS'cha'
p2468
ag279
asV\u7248
(lp2469
S'ban'
p2470
asV\u82D3
(lp2471
g1012
asV\u5F56
(lp2472
S'tuan'
p2473
asV\u7BD9
(lp2474
g1016
asV\u595A
(lp2475
g32
asV\u535E
(lp2476
g401
asV\u6FE1
(lp2477
g976
asV\u63E9
(lp2478
S'kai'
p2479
asV\u8268
(lp2480
g129
asV\u7B6E
(lp2481
g1523
asV\u7572
(lp2482
g1002
asV\u8BF9
(lp2483
g1787
asV\u5E80
(lp2484
g260
asV\u7A03
(lp2485
g496
ag193
asV\u5288
(lp2486
g199
ag260
asV\u680F
(lp2487
g549
asV\u7A98
(lp2488
g1880
asV\u749C
(lp2489
g89
asV\u901F
(lp2490
g791
asV\u8427
(lp2491
g227
asV\u62A8
(lp2492
g2101
asV\u96B0
(lp2493
g2113
asV\u90B4
(lp2494
g1056
asV\u6B39
(lp2495
g528
ag9
asV\u4E4B
(lp2496
g52
asV\u8D4D
(lp2497
g189
asV\u65D2
(lp2498
g1513
asV\u8155
(lp2499
S'wan'
p2500
asV\u5AD8
(lp2501
g763
asV\u54DC
(lp2502
g391
asV\u6467
(lp2503
S'cui'
p2504
asV\u9E6B
(lp2505
g2185
asV\u81EA
(lp2506
g1289
asV\u5175
(lp2507
S'bing'
p2508
asV\u867B
(lp2509
g129
asV\u807F
(lp2510
g231
asV\u6691
(lp2511
g356
asV\u8114
(lp2512
g348
asV\u579B
(lp2513
g838
ag860
asV\u781A
(lp2514
g174
asV\u949D
(lp2515
g93
asV\u6C22
(lp2516
g2015
asV\u82A9
(lp2517
g507
asV\u602A
(lp2518
S'guai'
p2519
asV\u5730
(lp2520
g2381
ag478
asV\u73B3
(lp2521
g1815
asV\u823E
(lp2522
g32
asV\u58C5
(lp2523
g539
asV\u52C9
(lp2524
g749
asV\u89CF
(lp2525
g760
asV\u6750
(lp2526
S'cai'
p2527
asV\u7AD9
(lp2528
g673
asV\u955C
(lp2529
g2128
asV\u525E
(lp2530
g189
asV\u6EE1
(lp2531
S'man'
p2532
asV\u62E9
(lp2533
g717
aS'zhai'
p2534
asV\u8368
(lp2535
g118
asV\u5FEB
(lp2536
S'kuai'
p2537
asV\u53F3
(lp2538
g258
asV\u627E
(lp2539
g1221
asV\u5F80
(lp2540
g154
ag2290
asV\u7B03
(lp2541
S'du'
p2542
asV\u9C82
(lp2543
g2395
asV\u5984
(lp2544
g2290
asV\u9686
(lp2545
S'long'
p2546
ag450
asV\u541D
(lp2547
g1191
asV\u63A8
(lp2548
S'tui'
p2549
asV\u7035
(lp2550
g169
asV\u91B4
(lp2551
g1412
asV\u8BB8
(lp2552
S'xu'
p2553
asV\u643D
(lp2554
g662
asV\u9E41
(lp2555
g398
asV\u76C6
(lp2556
S'pen'
p2557
asV\u70CA
(lp2558
g2424
ag1904
asV\u8651
(lp2559
S'lv'
p2560
asV\u64D2
(lp2561
g507
asV\u775B
(lp2562
g247
asV\u98DA
(lp2563
g56
asV\u55DC
(lp2564
g1523
asV\u6B63
(lp2565
g1487
aS'zheng'
p2566
asV\u80EA
(lp2567
g50
asV\u996F
(lp2568
g262
asV\u5671
(lp2569
g302
ag249
asV\u8D77
(lp2570
g190
asV\u877B
(lp2571
S'nan'
p2572
asV\u817F
(lp2573
S'tui'
p2574
asV\u6302
(lp2575
g1004
asV\u908B
(lp2576
g1166
asV\u538D
(lp2577
g5
asV\u968F
(lp2578
g913
asV\u5F95
(lp2579
S'lai'
p2580
asV\u6297
(lp2581
g1353
asV\u8418
(lp2582
g688
asV\u6E9F
(lp2583
g180
asV\u9020
(lp2584
g163
asV\u5F2A
(lp2585
g2128
asV\u622C
(lp2586
g601
asV\u6E34
(lp2587
g1842
asV\u7A3C
(lp2588
g2214
asV\u73CD
(lp2589
g150
asV\u524C
(lp2590
S'la'
p2591
asV\u954E
(lp2592
S'na'
p2593
asV\u79D1
(lp2594
g1033
asV\u7FD5
(lp2595
g32
asV\u5E54
(lp2596
g616
asV\u82D7
(lp2597
S'miao'
p2598
asV\u6D5E
(lp2599
g536
asV\u51E1
(lp2600
g858
asV\u94E3
(lp2601
S'xi'
p2602
ag486
asV\u5DE9
(lp2603
g1890
asV\u60EB
(lp2604
g530
asV\u7F6A
(lp2605
S'zui'
p2606
asV\u8870
(lp2607
g2504
ag2180
asV\u6CF3
(lp2608
g1702
asV\u8E74
(lp2609
g1122
asV\u72F7
(lp2610
g1945
asV\u5176
(lp2611
g189
ag476
asV\u9A7C
(lp2612
g1600
asV\u7EFF
(lp2613
g110
ag2560
asV\u6684
(lp2614
g1357
asV\u6C88
(lp2615
g112
ag1355
asV\u560F
(lp2616
g597
ag359
asV\u8C33
(lp2617
g174
asV\u9E3F
(lp2618
g1587
asV\u80C0
(lp2619
g1546
asV\u86C4
(lp2620
g44
ag597
asV\u6A47
(lp2621
g1312
asV\u4FCA
(lp2622
g1945
ag470
asV\u5BD2
(lp2623
g501
asV\u9ED4
(lp2624
g118
asV\u8559
(lp2625
g1101
asV\u64D8
(lp2626
S'bo'
p2627
asV\u4E5F
(lp2628
g81
asV\u9161
(lp2629
g1600
asV\u9765
(lp2630
g2043
asV\u5A67
(lp2631
g2128
asV\u7CE8
(lp2632
g587
asV\u636D
(lp2633
g1113
asV\u6971
(lp2634
g812
asV\u8BF2
(lp2635
g1101
asV\u7579
(lp2636
g750
asV\u918B
(lp2637
g1122
asV\u6E0A
(lp2638
g439
asV\u5E95
(lp2639
g2381
ag489
asV\u699B
(lp2640
g150
asV\u75A3
(lp2641
g320
asV\u7BA7
(lp2642
g312
asV\u82AD
(lp2643
g388
asV\u88B1
(lp2644
g193
asV\u6930
(lp2645
g1518
asV\u94B9
(lp2646
g398
asV\u7538
(lp2647
g142
asV\u59BB
(lp2648
g528
ag12
asV\u7B3C
(lp2649
g450
ag1538
asV\u6CC9
(lp2650
g907
asV\u8E4A
(lp2651
g528
ag32
asV\u72CD
(lp2652
S'pao'
p2653
asV\u7ED5
(lp2654
g1656
aS'rao'
p2655
asV\u665A
(lp2656
g750
asV\u8FDF
(lp2657
g71
asV\u6C5E
(lp2658
g1890
asV\u7262
(lp2659
g165
asV\u836C
(lp2660
S'mai'
p2661
asV\u67EF
(lp2662
g1033
asV\u6DF3
(lp2663
g767
asV\u8F74
(lp2664
S'zhou'
p2665
ag2324
asV\u5076
(lp2666
S'ou'
p2667
asV\u79FB
(lp2668
g599
asV\u8001
(lp2669
S'lao'
p2670
asV\u8605
(lp2671
g1309
asV\u6784
(lp2672
g760
asV\u6D88
(lp2673
g227
asV\u510B
(lp2674
S'dan'
p2675
asV\u7F94
(lp2676
g1016
asV\u8096
(lp2677
g227
ag905
asV\u51A0
(lp2678
g995
ag156
asV\u7625
(lp2679
g2092
ag1864
asV\u57A4
(lp2680
g408
asV\u98A6
(lp2681
g1979
asV\u64AE
(lp2682
g396
aS'cuo'
p2683
aS'zuo'
p2684
asV\u8D33
(lp2685
g1523
asV\u5439
(lp2686
S'chui'
p2687
asV\u7CBE
(lp2688
g247
asV\u81C0
(lp2689
g94
asV\u6B47
(lp2690
g611
asV\u4ECA
(lp2691
g1717
asV\u54CE
(lp2692
S'ai'
p2693
ag2122
ag1078
asV\u5AD2
(lp2694
g1078
asV\u8459
(lp2695
g314
asV\u4F5F
(lp2696
g562
asV\u71E0
(lp2697
g231
asV\u626D
(lp2698
S'niu'
p2699
asV\u5BFC
(lp2700
g1080
asV\u4F89
(lp2701
g1625
asV\u518D
(lp2702
S'zai'
p2703
asV\u948F
(lp2704
S'chuan'
p2705
asV\u9E93
(lp2706
g110
asV\u6C9F
(lp2707
g887
asV\u4F1E
(lp2708
g1565
asV\u78A7
(lp2709
g192
asV\u9E28
(lp2710
g933
asV\u4EB3
(lp2711
g398
asV\u8DB5
(lp2712
g1230
ag1096
asV\u6C34
(lp2713
S'shui'
p2714
asV\u7638
(lp2715
S'que'
p2716
asV\u783C
(lp2717
g562
asV\u5CBF
(lp2718
S'kui'
p2719
asV\u65C5
(lp2720
g182
asV\u6FC9
(lp2721
g1785
asV\u4E48
(lp2722
S'ma'
p2723
aS'me'
p2724
asV\u8D4A
(lp2725
g1002
asV\u504C
(lp2726
S'ruo'
p2727
asV\u7BD1
(lp2728
g2029
asV\u80D7
(lp2729
g150
asV\u6F5E
(lp2730
g110
asV\u55E5
(lp2731
g160
asV\u98E7
(lp2732
S'sun'
p2733
asV\u70F7
(lp2734
g288
asV\u987C
(lp2735
g106
asV\u8301
(lp2736
g536
asV\u6280
(lp2737
g391
asV\u6484
(lp2738
g66
asV\u540F
(lp2739
g91
asV\u8F9E
(lp2740
g515
asV\u7321
(lp2741
g187
asV\u52A0
(lp2742
g522
asV\u91A2
(lp2743
S'hai'
p2744
asV\u7525
(lp2745
g2124
asV\u54A4
(lp2746
g1351
asV\u7F29
(lp2747
g791
ag629
asV\u822B
(lp2748
g1461
asV\u5739
(lp2749
g2244
asV\u6643
(lp2750
S'huang'
p2751
aS'huang'
p2752
asV\u84C4
(lp2753
g2050
asV\u57CE
(lp2754
g814
asV\u59D2
(lp2755
g866
asV\u9CD4
(lp2756
S'biao'
p2757
asV\u8759
(lp2758
g2282
asV\u72E0
(lp2759
g1711
asV\u9565
(lp2760
g1362
asV\u74E4
(lp2761
g1817
asV\u7EE8
(lp2762
g478
ag1846
ag1577
asV\u87EE
(lp2763
g1708
asV\u7779
(lp2764
g2542
asV\u95FA
(lp2765
g1463
asV\u8783
(lp2766
g1870
asV\u6002
(lp2767
S'song'
p2768
asV\u4E89
(lp2769
g1487
asV\u508D
(lp2770
g1197
asV\u7812
(lp2771
g199
asV\u8718
(lp2772
g52
asV\u6B9B
(lp2773
g11
asV\u6D9F
(lp2774
g306
asV\u4E1E
(lp2775
g814
asV\u9524
(lp2776
g100
asV\u79A7
(lp2777
g2602
asV\u80AD
(lp2778
g721
asV\u51B7
(lp2779
S'leng'
p2780
asV\u96B9
(lp2781
g2504
ag1774
asV\u7738
(lp2782
g24
asV\u793C
(lp2783
g1412
asV\u8042
(lp2784
g108
asV\u64C5
(lp2785
g1708
asV\u5B50
(lp2786
g1347
asV\u7CD5
(lp2787
g1016
asV\u8BDB
(lp2788
g773
asV\u8DDF
(lp2789
g2432
asV\u54E5
(lp2790
g964
asV\u65EF
(lp2791
S'la'
p2792
asV\u8D74
(lp2793
g62
asV\u997C
(lp2794
g1056
asV\u8201
(lp2795
g270
asV\u6380
(lp2796
g834
asV\u8E09
(lp2797
g510
ag649
asV\u6F88
(lp2798
g1622
asV\u900D
(lp2799
g227
asV\u550F
(lp2800
g32
asV\u7B90
(lp2801
g580
asV\u5F13
(lp2802
g691
asV\u6619
(lp2803
g7
asV\u681D
(lp2804
g97
ag98
asV\u8E9E
(lp2805
g310
asV\u90A2
(lp2806
g1163
asV\u7425
(lp2807
g1955
asV\u5FA8
(lp2808
g89
asV\u832B
(lp2809
g1474
asV\u66AE
(lp2810
g852
asV\u72B6
(lp2811
g1233
asV\u5639
(lp2812
g498
asV\u9B3B
(lp2813
g231
asV\u74BA
(lp2814
g433
ag2416
asV\u7EBE
(lp2815
g445
asV\u83C0
(lp2816
g750
ag231
asV\u6743
(lp2817
g907
asV\u8FC8
(lp2818
g1603
asV\u91CC
(lp2819
g1412
asV\u754F
(lp2820
g452
asV\u67D8
(lp2821
g741
asV\u73E0
(lp2822
g773
asV\u75E4
(lp2823
g1864
asV\u9E69
(lp2824
g498
asV\u606D
(lp2825
g691
asV\u86EE
(lp2826
g277
asV\u6A71
(lp2827
g42
asV\u57F8
(lp2828
g148
asV\u94FA
(lp2829
S'pu'
p2830
ag935
asV\u9EFE
(lp2831
g749
ag618
asV\u8083
(lp2832
g791
asV\u8E87
(lp2833
g42
asV\u948B
(lp2834
g399
asV\u9893
(lp2835
S'tui'
p2836
asV\u7F12
(lp2837
g909
asV\u5B95
(lp2838
g406
asV\u6697
(lp2839
g454
asV\u8018
(lp2840
g1921
asV\u6C9B
(lp2841
g295
asV\u7EA7
(lp2842
g11
asV\u5D26
(lp2843
g365
asV\u87AD
(lp2844
g297
asV\u8DB1
(lp2845
S'zan'
p2846
asV\u6C30
(lp2847
g1559
asV\u8BB5
(lp2848
g209
asV\u56B7
(lp2849
S'rang'
p2850
ag1337
asV\u65C1
(lp2851
g1870
asV\u8D46
(lp2852
g902
asV\u77CD
(lp2853
g302
asV\u564C
(lp2854
S'ceng'
p2855
ag744
asV\u914E
(lp2856
g2324
asV\u5C50
(lp2857
g189
asV\u6556
(lp2858
g226
asV\u4FDD
(lp2859
g933
asV\u695E
(lp2860
S'leng'
p2861
asV\u55E1
(lp2862
S'weng'
p2863
asV\u7762
(lp2864
g1785
asV\u53E5
(lp2865
g887
ag209
asV\u9EE7
(lp2866
g146
asV\u866C
(lp2867
g802
asV\u62EF
(lp2868
S'zheng'
p2869
asV\u5576
(lp2870
S'ding'
p2871
asV\u7CFB
(lp2872
g391
ag427
asV\u537A
(lp2873
g711
asV\u7AFF
(lp2874
g425
asV\u8305
(lp2875
g417
asV\u6284
(lp2876
g1937
asV\u4E07
(lp2877
g375
ag2500
asV\u970D
(lp2878
g334
asV\u7325
(lp2879
g806
asV\u58A8
(lp2880
g375
asV\u822F
(lp2881
g235
asV\u73BA
(lp2882
g2602
asV\u79BE
(lp2883
g26
asV\u6043
(lp2884
g1523
asV\u82C4
(lp2885
g401
asV\u96CC
(lp2886
g515
asV\u9CD0
(lp2887
g330
asV\u5FD2
(lp2888
g633
aS'tei'
p2889
ag2549
asV\u8159
(lp2890
g519
asV\u60D8
(lp2891
g154
asV\u9561
(lp2892
g1054
ag7
ag372
asV\u74E0
(lp2893
g1245
asV\u9969
(lp2894
g427
asV\u78E8
(lp2895
g282
ag375
asV\u676D
(lp2896
g1308
asV\u95F6
(lp2897
S'kang'
p2898
ag1353
asV\u6602
(lp2899
S'ang'
p2900
asV\u8F87
(lp2901
S'nian'
p2902
asV\u6C06
(lp2903
g367
asV\u6A0A
(lp2904
g858
asV\u938F
(lp2905
g1513
asV\u5C91
(lp2906
S'cen'
p2907
asV\u9993
(lp2908
g1565
asV\u6797
(lp2909
g28
asV\u8118
(lp2910
g750
asV\u6D9B
(lp2911
g671
asV\u7FA7
(lp2912
g629
asV\u672C
(lp2913
S'ben'
p2914
asV\u90B9
(lp2915
g1787
asV\u9EBD
(lp2916
g2724
ag282
asV\u5BBF
(lp2917
g791
ag2352
ag256
asV\u62C5
(lp2918
g2675
ag1639
ag675
asV\u8C46
(lp2919
g1616
asV\u68C9
(lp2920
S'mian'
p2921
asV\u76CD
(lp2922
g26
asV\u574C
(lp2923
S'ben'
p2924
asV\u5B54
(lp2925
g747
asV\u8DDB
(lp2926
S'bo'
p2927
asV\u4EDD
(lp2928
g562
asV\u8BDF
(lp2929
g760
asV\u8D70
(lp2930
S'zou'
p2931
asV\u5476
(lp2932
g2206
asV\u9178
(lp2933
S'suan'
p2934
asV\u587E
(lp2935
S'shu'
p2936
asV\u8401
(lp2937
g476
asV\u8205
(lp2938
g2185
asV\u6988
(lp2939
S'lv'
p2940
asV\u960D
(lp2941
g1472
asV\u778C
(lp2942
g1033
asV\u530F
(lp2943
g2653
asV\u7B94
(lp2944
g398
asV\u6019
(lp2945
g1245
asV\u6E1D
(lp2946
g270
asV\u9CA6
(lp2947
g1901
asV\u7829
(lp2948
g193
asV\u59A8
(lp2949
g132
ag2395
asV\u852B
(lp2950
S'nian'
p2951
asV\u832F
(lp2952
g193
asV\u6EB2
(lp2953
g637
asV\u5E3D
(lp2954
g608
asV\u78BE
(lp2955
g2902
asV\u6F47
(lp2956
g227
asV\u89C8
(lp2957
g2218
asV\u754B
(lp2958
g1129
asV\u7953
(lp2959
g193
asV\u5ED2
(lp2960
g226
asV\u94F6
(lp2961
g2326
asV\u51F8
(lp2962
g2233
asV\u6F06
(lp2963
g528
asV\u968B
(lp2964
g913
asV\u730E
(lp2965
g614
asV\u9A93
(lp2966
g1774
asV\u8C1C
(lp2967
g1115
ag831
asV\u5522
(lp2968
g239
asV\u5F26
(lp2969
g1753
asV\u592A
(lp2970
g512
asV\u642C
(lp2971
g532
asV\u8FB1
(lp2972
S'ru'
p2973
asV\u7238
(lp2974
S'ba'
p2975
asV\u67C1
(lp2976
g860
ag1600
asV\u75CD
(lp2977
g599
asV\u79D5
(lp2978
g570
asV\u5854
(lp2979
S'da'
p2980
aS'ta'
p2981
asV\u6756
(lp2982
g1546
asV\u88DF
(lp2983
g704
asV\u846C
(lp2984
g1681
asV\u60EF
(lp2985
g156
asV\u8E70
(lp2986
g42
asV\u74F7
(lp2987
g515
asV\u5776
(lp2988
g852
asV\u7EFB
(lp2989
S'quan'
p2990
asV\u9C7C
(lp2991
g270
asV\u6084
(lp2992
g1312
aS'qiao'
p2993
asV\u950D
(lp2994
S'liu'
p2995
asV\u500F
(lp2996
g445
asV\u5A13
(lp2997
g806
asV\u63AE
(lp2998
g118
asV\u6DB2
(lp2999
g2043
asV\u5339
(lp3000
g260
aS'ya'
p3001
asV\u5D3D
(lp3002
S'zai'
p3003
asV\u86C0
(lp3004
g233
asV\u6243
(lp3005
S'jiong'
p3006
asV\u80C4
(lp3007
g2324
asV\u6C47
(lp3008
g1101
asV\u94CC
(lp3009
g627
asV\u704F
(lp3010
g161
asV\u62D8
(lp3011
g643
asV\u8D5D
(lp3012
g174
asV\u9761
(lp3013
g831
aS'mi'
p3014
asV\u9165
(lp3015
g1759
asV\u70E4
(lp3016
S'kao'
p3017
asV\u4EF0
(lp3018
g1332
asV\u97F6
(lp3019
S'shao'
p3020
asV\u6402
(lp3021
S'lou'
p3022
aS'lou'
p3023
asV\u978B
(lp3024
g590
asV\u680A
(lp3025
g450
asV\u5E91
(lp3026
g472
asV\u6597
(lp3027
S'dou'
p3028
ag1616
asV\u5E26
(lp3029
g1815
asV\u582A
(lp3030
g733
asV\u6934
(lp3031
g2384
asV\u55B7
(lp3032
S'pen'
p3033
aS'pen'
p3034
asV\u7338
(lp3035
g804
asV\u9CBD
(lp3036
g408
asV\u60C5
(lp3037
g1559
asV\u7ED1
(lp3038
g385
asV\u78D5
(lp3039
g1033
asV\u5954
(lp3040
g622
ag2924
asV\u6656
(lp3041
S'hui'
p3042
asV\u8FDB
(lp3043
g902
asV\u605A
(lp3044
g1101
asV\u56E1
(lp3045
S'nan'
p3046
asV\u5AE9
(lp3047
S'nen'
p3048
asV\u786A
(lp3049
g1605
asV\u8F70
(lp3050
S'hong'
p3051
asV\u6BF3
(lp3052
g1419
asV\u5676
(lp3053
g327
asV\u7FFB
(lp3054
g1947
asV\u8005
(lp3055
g1992
asV\u809A
(lp3056
g2542
aS'du'
p3057
asV\u57A0
(lp3058
g2326
asV\u94A2
(lp3059
g1061
aS'gang'
p3060
asV\u51A4
(lp3061
g439
asV\u9EA6
(lp3062
g1603
asV\u812F
(lp3063
g917
ag362
asV\u6CB2
(lp3064
g860
asV\u9537
(lp3065
S'e'
asV\u5239
(lp3066
g279
ag704
asV\u9F3B
(lp3067
S'bi'
p3068
asV\u5C3D
(lp3069
g711
ag902
asV\u87C0
(lp3070
S'shuai'
p3071
asV\u6343
(lp3072
g470
asV\u6D47
(lp3073
g789
asV\u4EC6
(lp3074
g2830
ag362
asV\u8BC8
(lp3075
g1351
asV\u5CD2
(lp3076
g14
ag562
asV\u4F5B
(lp3077
S'fo'
p3078
ag193
asV\u9661
(lp3079
g3028
asV\u5363
(lp3080
g2355
asV\u9065
(lp3081
g330
asV\u646D
(lp3082
g922
asV\u96F6
(lp3083
g1012
asV\u7279
(lp3084
g633
asV\u53F8
(lp3085
g292
asV\u7C7D
(lp3086
g1347
asV\u6106
(lp3087
g176
asV\u670A
(lp3088
g960
asV\u9493
(lp3089
g1275
asV\u6A97
(lp3090
g2627
asV\u8C18
(lp3091
g516
asV\u609B
(lp3092
S'quan'
p3093
asV\u4F1A
(lp3094
g1101
ag2537
asV\u821C
(lp3095
S'shun'
p3096
asV\u572A
(lp3097
g964
asV\u8BAD
(lp3098
g503
asV\u87B5
(lp3099
g966
asV\u6634
(lp3100
g2398
asV\u7C38
(lp3101
g2927
ag2627
asV\u50BB
(lp3102
S'sha'
p3103
asV\u69C1
(lp3104
g883
asV\u8146
(lp3105
g2306
asV\u5654
(lp3106
g534
asV\u80DB
(lp3107
g359
asV\u86DF
(lp3108
g789
asV\u655E
(lp3109
g1105
asV\u7B62
(lp3110
S'pa'
p3111
asV\u7166
(lp3112
g2050
asV\u5976
(lp3113
g1048
asV\u557E
(lp3114
g213
asV\u580B
(lp3115
g1985
asV\u5E0F
(lp3116
g1037
asV\u5413
(lp3117
g152
ag1956
asV\u6D19
(lp3118
g773
asV\u8F9A
(lp3119
g28
asV\u631D
(lp3120
g566
aS'zhua'
p3121
asV\u7F25
(lp3122
g966
ag2023
asV\u7529
(lp3123
S'shuai'
p3124
asV\u54A8
(lp3125
g516
asV\u8E2F
(lp3126
g922
asV\u6DAE
(lp3127
S'shuan'
p3128
asV\u903B
(lp3129
g187
asV\u963F
(lp3130
S'a'
aS'a'
aS'e'
asV\u75BE
(lp3131
g11
asV\u6247
(lp3132
g855
ag1708
asV\u9ACC
(lp3133
g808
asV\u90D0
(lp3134
g2537
asV\u8D59
(lp3135
g62
asV\u62DC
(lp3136
S'bai'
p3137
asV\u5C63
(lp3138
g2602
asV\u5267
(lp3139
g209
asV\u9569
(lp3140
g1502
asV\u83F2
(lp3141
g1860
ag1304
asV\u6775
(lp3142
g1171
asV\u95FE
(lp3143
g2940
asV\u6006
(lp3144
S'chuang'
p3145
asV\u998B
(lp3146
g1054
asV\u660A
(lp3147
g161
asV\u4E1A
(lp3148
g2043
asV\u831C
(lp3149
g833
ag32
asV\u5026
(lp3150
g1945
asV\u9528
(lp3151
g834
asV\u4FAF
(lp3152
S'hou'
p3153
ag120
asV\u80B1
(lp3154
g691
asV\u86B5
(lp3155
g26
ag178
asV\u6734
(lp3156
S'piao'
p3157
ag399
ag332
ag367
asV\u51BB
(lp3158
g14
asV\u8046
(lp3159
g1012
asV\u8BD7
(lp3160
g794
asV\u645E
(lp3161
g993
asV\u54E9
(lp3162
S'li'
p3163
ag1412
aS'li'
p3164
asV\u8B6C
(lp3165
g828
asV\u6FEF
(lp3166
g536
asV\u8170
(lp3167
g2373
asV\u8774
(lp3168
g18
asV\u7BF7
(lp3169
g1985
asV\u5E7A
(lp3170
g2373
asV\u77FF
(lp3171
g2244
asV\u6980
(lp3172
g1825
asV\u8E05
(lp3173
g249
asV\u6F84
(lp3174
g814
ag1862
asV\u5F0F
(lp3175
g1523
asV\u9011
(lp3176
g802
asV\u9615
(lp3177
g20
asV\u8896
(lp3178
g256
asV\u6C19
(lp3179
g834
asV\u9AA2
(lp3180
g1797
asV\u90A6
(lp3181
S'bang'
p3182
asV\u892B
(lp3183
g195
asV\u6CAE
(lp3184
g429
ag209
asV\u5C39
(lp3185
g2105
asV\u7EBA
(lp3186
g1461
asV\u523D
(lp3187
g1642
asV\u6D43
(lp3188
g522
asV\u8FC4
(lp3189
g12
asV\u52D2
(lp3190
g48
ag762
asV\u6DD8
(lp3191
g220
asV\u5367
(lp3192
g1605
asV\u75E8
(lp3193
g165
asV\u53FC
(lp3194
g1386
asV\u94FE
(lp3195
S'lian'
p3196
asV\u8087
(lp3197
g1139
asV\u9A8B
(lp3198
S'cheng'
p3199
asV\u598D
(lp3200
g969
asV\u7F0E
(lp3201
g2384
asV\u6897
(lp3202
S'geng'
p3203
asV\u629B
(lp3204
g2407
asV\u801C
(lp3205
g866
asV\u7EA3
(lp3206
g2324
asV\u5326
(lp3207
g1179
asV\u552A
(lp3208
S'feng'
p3209
asV\u83B1
(lp3210
g2580
asV\u6434
(lp3211
g176
asV\u54BF
(lp3212
g9
asV\u6BC1
(lp3213
S'hui'
p3214
asV\u6DC5
(lp3215
g32
asV\u8346
(lp3216
g247
asV\u854A
(lp3217
S'rui'
p3218
asV\u79CD
(lp3219
g678
aS'zhong'
p3220
aS'zhong'
p3221
asV\u584C
(lp3222
g1204
asV\u73D1
(lp3223
g450
asV\u5250
(lp3224
g2445
asV\u9152
(lp3225
g1767
asV\u75D5
(lp3226
S'hen'
p3227
asV\u5454
(lp3228
S'dai'
p3229
aS'tai'
p3230
asV\u82DB
(lp3231
g1033
asV\u6D5A
(lp3232
g470
ag503
asV\u84DF
(lp3233
g391
asV\u675E
(lp3234
g190
asV\u5BE1
(lp3235
g2445
asV\u7962
(lp3236
g831
ag1493
asV\u5DE5
(lp3237
g691
asV\u90E7
(lp3238
g1921
asV\u756A
(lp3239
g1947
aS'pan'
p3240
asV\u886C
(lp3241
g1569
asV\u6CEF
(lp3242
g618
asV\u8270
(lp3243
g117
asV\u66F3
(lp3244
g2043
ag1746
asV\u78F7
(lp3245
g28
asV\u72FB
(lp3246
g2934
asV\u74FF
(lp3247
g126
asV\u6A80
(lp3248
g7
asV\u4E03
(lp3249
g528
asV\u8709
(lp3250
g193
asV\u990D
(lp3251
g174
asV\u788C
(lp3252
g253
ag110
asV\u5C0F
(lp3253
S'xiao'
p3254
asV\u9515
(lp3255
S'a'
asV\u4E98
(lp3256
g1120
asV\u7729
(lp3257
g625
asV\u8C2F
(lp3258
g582
ag873
asV\u5F39
(lp3259
g675
ag7
asV\u6E43
(lp3260
g1542
asV\u60DC
(lp3261
g32
asV\u7AE0
(lp3262
g573
asV\u9769
(lp3263
g85
ag11
ag205
asV\u8FEE
(lp3264
g717
asV\u6371
(lp3265
g2693
ag457
asV\u7F79
(lp3266
g146
asV\u717D
(lp3267
g855
asV\u8F83
(lp3268
g1067
asV\u6206
(lp3269
g3060
ag1233
asV\u5495
(lp3270
g44
asV\u659F
(lp3271
g150
asV\u88AD
(lp3272
g2113
asV\u82B1
(lp3273
S'hua'
p3274
asV\u6534
(lp3275
g399
asV\u7F38
(lp3276
g1061
asV\u53BB
(lp3277
S'qu'
p3278
asV\u6CC5
(lp3279
g802
asV\u9E4E
(lp3280
g122
asV\u9052
(lp3281
g802
asV\u4ED9
(lp3282
g834
asV\u5AE1
(lp3283
g1498
asV\u5CE5
(lp3284
g1487
asV\u7266
(lp3285
g417
asV\u6BEB
(lp3286
g160
asV\u67F3
(lp3287
g2995
asV\u8574
(lp3288
g1160
asV\u5A76
(lp3289
g1355
asV\u5C7A
(lp3290
g190
asV\u75FF
(lp3291
g806
asV\u8C05
(lp3292
g649
asV\u7594
(lp3293
S'ding'
p3294
asV\u601D
(lp3295
g1835
ag292
asV\u5BA0
(lp3296
S'chong'
p3297
asV\u98A2
(lp3298
g161
asV\u7629
(lp3299
g443
asV\u94AA
(lp3300
g1353
asV\u8D2F
(lp3301
g156
asV\u60B2
(lp3302
g122
asV\u953F
(lp3303
g2693
asV\u8BC0
(lp3304
g302
asV\u8DC4
(lp3305
g1715
aS'qiang'
p3306
asV\u7B4B
(lp3307
g1717
asV\u8E59
(lp3308
g1122
asV\u9669
(lp3309
g486
asV\u80F2
(lp3310
g2744
asV\u5FF8
(lp3311
g2699
asV\u51FC
(lp3312
g406
asV\u96FE
(lp3313
g1176
asV\u6F02
(lp3314
g966
ag2023
aS'piao'
p3315
asV\u9C8B
(lp3316
g62
asV\u9A8F
(lp3317
g470
asV\u5591
(lp3318
g167
asV\u9093
(lp3319
g1862
asV\u5395
(lp3320
g377
aS'si'
p3321
asV\u629F
(lp3322
S'tuan'
p3323
asV\u78A3
(lp3324
g172
asV\u532A
(lp3325
g1304
asV\u6234
(lp3326
g1815
asV\u5EB7
(lp3327
g2898
asV\u7838
(lp3328
S'za'
p3329
asV\u54BB
(lp3330
g896
asV\u763C
(lp3331
g375
asV\u52BF
(lp3332
g1523
asV\u6BC5
(lp3333
g148
asV\u5E4C
(lp3334
g2751
asV\u5450
(lp3335
g721
aS'na'
p3336
ag722
ag723
asV\u9752
(lp3337
g2015
asV\u5254
(lp3338
g1291
asV\u82DF
(lp3339
g787
asV\u5DE1
(lp3340
g290
asV\u7F62
(lp3341
g2975
aS'ba'
p3342
asV\u5BE5
(lp3343
g498
asV\u7566
(lp3344
g476
ag476
asV\u6CEB
(lp3345
g625
asV\u8E6C
(lp3346
g534
ag1862
asV\u60F3
(lp3347
g706
asV\u8274
(lp3348
g193
asV\u7EF7
(lp3349
g77
aS'beng'
p3350
ag379
asV\u9878
(lp3351
g237
asV\u5B7A
(lp3352
g976
asV\u6A84
(lp3353
g2113
asV\u8109
(lp3354
g1603
ag375
asV\u9F0D
(lp3355
g1600
asV\u9511
(lp3356
g1291
asV\u7490
(lp3357
g110
asV\u671D
(lp3358
g1010
ag575
asV\u7B25
(lp3359
g866
asV\u50A8
(lp3360
g1171
asV\u8C2B
(lp3361
g601
asV\u8033
(lp3362
g462
asV\u9E37
(lp3363
g53
asV\u5939
(lp3364
g326
ag522
ag631
asV\u6843
(lp3365
g220
asV\u94D0
(lp3366
g719
asV\u57D2
(lp3367
g614
asV\u68D8
(lp3368
g11
asV\u66DC
(lp3369
g3
asV\u7CE0
(lp3370
g2898
asV\u9169
(lp3371
S'ming'
p3372
asV\u70E8
(lp3373
g2043
asV\u6F6D
(lp3374
g7
asV\u4EEC
(lp3375
S'men'
p3376
asV\u777D
(lp3377
g1052
asV\u8983
(lp3378
g507
ag7
asV\u620A
(lp3379
g1176
asV\u659B
(lp3380
g18
asV\u871C
(lp3381
g868
asV\u77A7
(lp3382
g582
ag3001
asV\u5426
(lp3383
S'fou'
p3384
ag260
asV\u5FB7
(lp3385
g2380
asV\u55BB
(lp3386
g231
asV\u96BD
(lp3387
g1945
ag470
asV\u773C
(lp3388
g694
asV\u53BF
(lp3389
g36
asV\u8E42
(lp3390
S'rou'
p3391
asV\u8446
(lp3392
g933
asV\u7ECD
(lp3393
g466
asV\u5550
(lp3394
g1419
asV\u83DF
(lp3395
g1279
aS'tu'
p3396
asV\u5CE1
(lp3397
g243
asV\u97E7
(lp3398
g1417
asV\u6DEB
(lp3399
g2326
asV\u8F6C
(lp3400
S'zhuai'
p3401
aS'zhuan'
p3402
ag1636
asV\u6BEF
(lp3403
g1306
asV\u5A7A
(lp3404
g1176
asV\u977C
(lp3405
g443
asV\u507E
(lp3406
g169
asV\u8C01
(lp3407
S'shei'
p3408
aS'shui'
p3409
asV\u6B84
(lp3410
g2306
asV\u7F8C
(lp3411
g1715
asV\u661D
(lp3412
g2846
asV\u5BA4
(lp3413
g1523
asV\u94A6
(lp3414
g579
asV\u8D2B
(lp3415
g1979
asV\u4E2D
(lp3416
g235
ag3221
asV\u9F37
(lp3417
g32
asV\u953B
(lp3418
g2384
asV\u4EC2
(lp3419
g48
asV\u8BC4
(lp3420
g824
asV\u7B4F
(lp3421
g1868
asV\u4F57
(lp3422
g1600
asV\u8859
(lp3423
g1091
asV\u67DC
(lp3424
g1642
ag429
asV\u86F2
(lp3425
g2206
asV\u767D
(lp3426
S'bai'
p3427
asV\u90FE
(lp3428
g694
asV\u8487
(lp3429
g972
asV\u9E8B
(lp3430
g831
asV\u988F
(lp3431
g1033
ag1770
asV\u5195
(lp3432
g749
asV\u841C
(lp3433
S'tie'
p3434
asV\u609F
(lp3435
g1176
asV\u9E20
(lp3436
g213
asV\u74A7
(lp3437
g192
asV\u4EAB
(lp3438
g706
asV\u5CB7
(lp3439
S'min'
p3440
asV\u743C
(lp3441
g736
asV\u8D42
(lp3442
g110
asV\u63C9
(lp3443
g3391
asV\u814A
(lp3444
g2591
ag32
asV\u9552
(lp3445
g148
asV\u71D5
(lp3446
g365
ag174
asV\u86DB
(lp3447
g773
asV\u695A
(lp3448
g1171
asV\u635E
(lp3449
S'lao'
p3450
asV\u5FE1
(lp3451
g1756
asV\u59E5
(lp3452
g2670
aS'mu'
p3453
asV\u94E7
(lp3454
g875
asV\u7766
(lp3455
g852
asV\u53E9
(lp3456
g1932
asV\u62F3
(lp3457
g907
asV\u9A78
(lp3458
g62
asV\u8309
(lp3459
g375
asV\u7094
(lp3460
g1642
aS'que'
p3461
asV\u8F96
(lp3462
g243
asV\u839E
(lp3463
g995
ag1467
ag750
asV\u7F21
(lp3464
g146
asV\u5EA0
(lp3465
g588
asV\u7329
(lp3466
S'xing'
p3467
asV\u52A8
(lp3468
g14
asV\u91AA
(lp3469
g165
asV\u8233
(lp3470
g784
asV\u963B
(lp3471
S'zu'
p3472
asV\u79BA
(lp3473
g270
asV\u6447
(lp3474
g330
asV\u82C8
(lp3475
g91
asV\u9CCC
(lp3476
g226
asV\u55D2
(lp3477
g544
ag1281
asV\u7EE0
(lp3478
g3203
asV\u9965
(lp3479
g189
asV\u72E8
(lp3480
g592
asV\u8BEE
(lp3481
g873
asV\u6175
(lp3482
g539
asV\u7B79
(lp3483
g944
asV\u54FC
(lp3484
S'heng'
p3485
aS'hng'
p3486
asV\u8587
(lp3487
g144
asV\u6606
(lp3488
g2278
asV\u9F8B
(lp3489
S'qu'
p3490
asV\u600A
(lp3491
g1937
asV\u5C8D
(lp3492
g176
asV\u998F
(lp3493
g1513
ag253
asV\u7A0E
(lp3494
S'shui'
p3495
asV\u4E16
(lp3496
g1523
asV\u9F20
(lp3497
g356
asV\u5C22
(lp3498
S'wang'
p3499
ag320
asV\u502A
(lp3500
g627
asV\u86B1
(lp3501
g1351
asV\u5DB7
(lp3502
g599
asV\u7B38
(lp3503
S'po'
p3504
asV\u94BD
(lp3505
g1306
asV\u6EC1
(lp3506
g42
asV\u62C9
(lp3507
g1166
ag2792
aS'la'
p3508
ag2591
asV\u804A
(lp3509
g498
asV\u7CCD
(lp3510
g515
asV\u5D4C
(lp3511
g734
ag833
asV\u76D1
(lp3512
g117
ag262
asV\u5750
(lp3513
g441
asV\u5154
(lp3514
g3396
asV\u8DD7
(lp3515
g496
asV\u6E56
(lp3516
g18
asV\u87DB
(lp3517
g1985
asV\u8770
(lp3518
g1052
asV\u8174
(lp3519
g270
asV\u5E76
(lp3520
g2508
aS'bing'
p3521
asV\u6984
(lp3522
g2218
asV\u6388
(lp3523
g554
asV\u5F0B
(lp3524
g148
asV\u590F
(lp3525
g1956
asV\u9611
(lp3526
g549
asV\u7194
(lp3527
g592
asV\u9CA2
(lp3528
g306
asV\u7825
(lp3529
g489
asV\u59A4
(lp3530
g270
asV\u53A8
(lp3531
g42
asV\u90AA
(lp3532
g590
ag1519
asV\u8333
(lp3533
g304
asV\u7EB6
(lp3534
g995
ag1966
asV\u6B43
(lp3535
g1367
asV\u89C4
(lp3536
g1463
asV\u54D2
(lp3537
g544
asV\u7FE0
(lp3538
g1419
asV\u5B63
(lp3539
g391
asV\u79E4
(lp3540
g1569
ag744
ag1570
asV\u5567
(lp3541
g717
asV\u7A79
(lp3542
g736
asV\u5BF8
(lp3543
S'cun'
p3544
asV\u5181
(lp3545
g972
asV\u5785
(lp3546
g1538
asV\u9A87
(lp3547
g1808
asV\u808B
(lp3548
S'le'
p3549
ag764
asV\u789B
(lp3550
g12
asV\u5D1E
(lp3551
g541
asV\u8020
(lp3552
g1021
asV\u8C28
(lp3553
g711
asV\u4F2A
(lp3554
g806
asV\u722C
(lp3555
g3111
asV\u56AF
(lp3556
g334
asV\u7830
(lp3557
g2101
asV\u5CB3
(lp3558
g273
asV\u85B9
(lp3559
g2072
asV\u8BBD
(lp3560
g3209
asV\u4EBF
(lp3561
g148
asV\u5C48
(lp3562
g1267
asV\u63CD
(lp3563
g1406
asV\u4E54
(lp3564
g582
asV\u775A
(lp3565
g1091
asV\u5BDD
(lp3566
S'qin'
p3567
asV\u9EDF
(lp3568
g9
asV\u84E3
(lp3569
g231
asV\u6362
(lp3570
g136
asV\u6966
(lp3571
g625
asV\u70EB
(lp3572
S'tang'
p3573
asV\u76EF
(lp3574
g3294
asV\u556E
(lp3575
g108
asV\u62F7
(lp3576
g3017
asV\u8478
(lp3577
g2602
asV\u7080
(lp3578
g2424
asV\u5403
(lp3579
g297
asV\u7684
(lp3580
g2381
ag1498
ag478
asV\u5A07
(lp3581
g789
asV\u7519
(lp3582
g1815
asV\u75AE
(lp3583
S'chuang'
p3584
asV\u5931
(lp3585
g794
asV\u8237
(lp3586
g1753
asV\u53C2
(lp3587
g124
aS'cen'
p3588
ag2253
asV\u96C4
(lp3589
S'xiong'
p3590
asV\u59C6
(lp3591
g3453
asV\u604B
(lp3592
g3196
asV\u82CC
(lp3593
g985
asV\u664F
(lp3594
g174
asV\u9559
(lp3595
g187
asV\u60E0
(lp3596
g1101
asV\u8765
(lp3597
g417
asV\u6CE8
(lp3598
g233
asV\u736D
(lp3599
g2981
asV\u95EE
(lp3600
g2416
asV\u58F0
(lp3601
g2124
asV\u5685
(lp3602
g976
asV\u4E95
(lp3603
g2020
asV\u9518
(lp3604
g2388
asV\u7F9F
(lp3605
g843
asV\u8D28
(lp3606
g53
asV\u4E2A
(lp3607
g1014
ag992
asV\u732C
(lp3608
g452
asV\u7F34
(lp3609
g359
ag360
ag536
asV\u84B9
(lp3610
g117
asV\u6538
(lp3611
g604
asV\u4FBF
(lp3612
g401
ag929
asV\u70C1
(lp3613
g666
asV\u5140
(lp3614
g1195
ag1176
asV\u76C5
(lp3615
g235
asV\u9E4A
(lp3616
g20
asV\u62CD
(lp3617
S'pai'
p3618
asV\u6ED5
(lp3619
g560
asV\u54D9
(lp3620
g2537
asV\u8BE7
(lp3621
g279
asV\u6866
(lp3622
g876
asV\u9970
(lp3623
g1523
asV\u9001
(lp3624
g468
asV\u9605
(lp3625
g273
asV\u7784
(lp3626
g2598
asV\u820D
(lp3627
S'she'
p3628
ag5
asV\u638C
(lp3629
g352
asV\u5598
(lp3630
g1031
asV\u5B9C
(lp3631
g599
asV\u9C9E
(lp3632
g706
asV\u6021
(lp3633
g599
asV\u6625
(lp3634
S'chun'
p3635
asV\u6C29
(lp3636
g1683
asV\u522D
(lp3637
g2020
asV\u6CBE
(lp3638
g1365
asV\u7B47
(lp3639
g736
asV\u5ECA
(lp3640
g474
asV\u83CC
(lp3641
g2099
ag470
asV\u674F
(lp3642
g2035
asV\u89D0
(lp3643
g902
asV\u6D53
(lp3644
S'nong'
p3645
asV\u8FD4
(lp3646
g38
asV\u5357
(lp3647
S'na'
p3648
aS'nan'
p3649
asV\u75D8
(lp3650
g1616
asV\u53EC
(lp3651
g466
ag1139
asV\u94EE
(lp3652
g1487
ag2566
asV\u80F6
(lp3653
g789
asV\u6479
(lp3654
g282
asV\u9887
(lp3655
g399
asV\u7B06
(lp3656
g388
asV\u5F89
(lp3657
g2424
asV\u828B
(lp3658
g231
asV\u7D0A
(lp3659
g686
asV\u6912
(lp3660
g789
asV\u5316
(lp3661
g3274
ag876
asV\u7C9F
(lp3662
g791
asV\u8424
(lp3663
g1820
asV\u68A7
(lp3664
g1076
asV\u52AB
(lp3665
g172
asV\u91AD
(lp3666
S'bu'
p3667
asV\u54AF
(lp3668
g964
ag1026
aS'lo'
p3669
ag993
asV\u5EB3
(lp3670
g192
asV\u683C
(lp3671
g964
ag85
asV\u5240
(lp3672
g1975
asV\u75C5
(lp3673
g3521
asV\u874E
(lp3674
g611
asV\u90D7
(lp3675
g32
asV\u57D9
(lp3676
g658
asV\u755A
(lp3677
g2914
asV\u59DD
(lp3678
g445
asV\u9CDF
(lp3679
g1549
asV\u6162
(lp3680
g616
asV\u6B66
(lp3681
g472
asV\u4FE9
(lp3682
S'lia'
p3683
ag1927
asV\u6D6A
(lp3684
S'lang'
p3685
asV\u74EF
(lp3686
g584
asV\u9A70
(lp3687
g71
asV\u7EF3
(lp3688
S'sheng'
p3689
asV\u4F7E
(lp3690
g148
asV\u7280
(lp3691
g32
asV\u9505
(lp3692
g541
asV\u5807
(lp3693
g711
asV\u810D
(lp3694
g2537
asV\u608C
(lp3695
g1577
asV\u6A90
(lp3696
g969
asV\u4E13
(lp3697
g2097
asV\u6C94
(lp3698
g749
asV\u7719
(lp3699
g599
asV\u6321
(lp3700
g1892
ag406
asV\u6525
(lp3701
S'zuan'
p3702
asV\u8BA6
(lp3703
g172
asV\u6F29
(lp3704
S'xuan'
p3705
asV\u4EA8
(lp3706
g3485
asV\u9E33
(lp3707
g439
asV\u8037
(lp3708
g544
asV\u7643
(lp3709
g450
asV\u94C4
(lp3710
g666
asV\u7847
(lp3711
g2206
asV\u5BC6
(lp3712
g868
asV\u624B
(lp3713
g1983
asV\u80CC
(lp3714
g122
ag530
asV\u6E53
(lp3715
g2557
asV\u9759
(lp3716
g2128
asV\u76D8
(lp3717
g202
asV\u8361
(lp3718
g406
asV\u64E4
(lp3719
g1023
asV\u8F69
(lp3720
g1357
asV\u6EE8
(lp3721
g102
asV\u50EC
(lp3722
g789
asV\u7B71
(lp3723
g3254
asV\u5281
(lp3724
g1312
asV\u9987
(lp3725
g1098
asV\u7A06
(lp3726
g182
asV\u858F
(lp3727
g148
asV\u660E
(lp3728
g180
asV\u8F93
(lp3729
g445
asV\u5216
(lp3730
g273
asV\u67A3
(lp3731
g2047
asV\u69A7
(lp3732
g1304
asV\u9AB1
(lp3733
g708
asV\u9CB5
(lp3734
g627
asV\u72C1
(lp3735
g1007
asV\u9042
(lp3736
g913
ag2009
asV\u5544
(lp3737
g536
asV\u7EC9
(lp3738
g2324
asV\u864E
(lp3739
g1955
ag1245
asV\u6CD5
(lp3740
S'fa'
p3741
asV\u7256
(lp3742
g2355
asV\u745A
(lp3743
g18
asV\u6062
(lp3744
g3042
asV\u6C6A
(lp3745
g3499
asV\u916C
(lp3746
g944
asV\u7FF3
(lp3747
g148
asV\u4E7E
(lp3748
g425
ag118
asV\u5703
(lp3749
g367
asV\u5907
(lp3750
g530
asV\u800D
(lp3751
S'shua'
p3752
asV\u8C15
(lp3753
g231
asV\u6D94
(lp3754
g2907
asV\u7619
(lp3755
S'sao'
p3756
asV\u949A
(lp3757
g126
asV\u781D
(lp3758
g3741
asV\u6221
(lp3759
g733
asV\u80A2
(lp3760
g52
asV\u6E29
(lp3761
S'wen'
p3762
asV\u4FA8
(lp3763
g582
asV\u502D
(lp3764
g566
asV\u952F
(lp3765
g643
ag209
asV\u76AE
(lp3766
g207
asV\u5A31
(lp3767
g270
asV\u78B2
(lp3768
g478
asV\u64BA
(lp3769
g1502
asV\u8D3F
(lp3770
g1101
asV\u7743
(lp3771
g629
asV\u634B
(lp3772
g182
ag2437
asV\u81CC
(lp3773
g597
asV\u654F
(lp3774
g618
asV\u5B5B
(lp3775
g530
ag398
asV\u63E0
(lp3776
g1683
asV\u8E69
(lp3777
S'bie'
p3778
asV\u706D
(lp3779
g69
asV\u5BF0
(lp3780
g799
asV\u5DF4
(lp3781
g388
asV\u5581
(lp3782
S'yong'
p3783
asV\u9083
(lp3784
g2009
asV\u5385
(lp3785
g1151
asV\u9E87
(lp3786
g2099
ag937
asV\u848B
(lp3787
g2045
asV\u7B0A
(lp3788
g1139
asV\u828F
(lp3789
g3057
asV\u610E
(lp3790
g192
asV\u7A9F
(lp3791
g138
asV\u60A3
(lp3792
g136
asV\u6EA7
(lp3793
g91
asV\u54AB
(lp3794
g924
asV\u97AD
(lp3795
g2282
asV\u8FBD
(lp3796
g498
asV\u5440
(lp3797
g1228
aS'ya'
p3798
asV\u79C9
(lp3799
g1056
asV\u6DD1
(lp3800
g445
asV\u6BD5
(lp3801
g192
asV\u5FDD
(lp3802
g2306
asV\u9ADF
(lp3803
g56
ag855
asV\u795E
(lp3804
g1583
asV\u6D66
(lp3805
g367
asV\u6B6A
(lp3806
S'wai'
p3807
asV\u966C
(lp3808
g1787
asV\u72EF
(lp3809
g2537
asV\u516E
(lp3810
g32
asV\u9A74
(lp3811
g2940
asV\u66F7
(lp3812
g26
asV\u6CFB
(lp3813
g310
asV\u8E7C
(lp3814
g367
asV\u9501
(lp3815
g239
asV\u7480
(lp3816
S'cui'
p3817
asV\u7284
(lp3818
g189
asV\u870D
(lp3819
g42
asV\u668C
(lp3820
g1052
asV\u6C90
(lp3821
g852
asV\u7119
(lp3822
g530
asV\u7F1D
(lp3823
S'feng'
p3824
ag775
asV\u5E9C
(lp3825
g917
asV\u6325
(lp3826
g3042
asV\u8BAA
(lp3827
g1708
asV\u572D
(lp3828
g1463
asV\u7FB2
(lp3829
g32
asV\u63BA
(lp3830
g836
ag350
ag950
asV\u4F3D
(lp3831
g326
ag522
ag1302
ag523
asV\u94C0
(lp3832
g320
asV\u57C2
(lp3833
g3203
asV\u7E47
(lp3834
g330
ag320
ag2324
asV\u6853
(lp3835
g799
asV\u5657
(lp3836
g2830
asV\u70D8
(lp3837
g3051
asV\u7EDC
(lp3838
g1832
ag993
asV\u8365
(lp3839
g1163
ag1820
asV\u5CF0
(lp3840
g620
asV\u7B75
(lp3841
g969
asV\u9F87
(lp3842
g516
asV\u5889
(lp3843
g539
asV\u600E
(lp3844
S'zen'
p3845
asV\u5416
(lp3846
S'a'
asV\u521A
(lp3847
g1061
asV\u581E
(lp3848
g408
asV\u6FA7
(lp3849
g1412
asV\u9CB1
(lp3850
g1860
asV\u9642
(lp3851
g122
ag207
ag399
asV\u78C9
(lp3852
g885
asV\u5948
(lp3853
g688
asV\u8E52
(lp3854
g202
asV\u81E3
(lp3855
g112
asV\u75EB
(lp3856
g1753
asV\u5E72
(lp3857
g425
ag1271
asV\u6DFB
(lp3858
g482
asV\u8F7C
(lp3859
g1523
asV\u7384
(lp3860
g3705
asV\u8C11
(lp3861
S'xue'
p3862
asV\u5F9C
(lp3863
g985
asV\u989E
(lp3864
g108
asV\u6421
(lp3865
g885
asV\u6225
(lp3866
S'deng'
p3867
asV\u6829
(lp3868
g2553
asV\u952B
(lp3869
S'pei'
p3870
asV\u562D
(lp3871
g2101
asV\u70AE
(lp3872
g820
ag2407
ag2653
ag2408
asV\u5C31
(lp3873
g2185
asV\u7EB2
(lp3874
g1061
asV\u8737
(lp3875
g907
asV\u8D3B
(lp3876
g599
asV\u4E3D
(lp3877
g146
ag91
asV\u634F
(lp3878
S'nie'
p3879
asV\u8BD4
(lp3880
g73
asV\u5757
(lp3881
g2537
asV\u5D5B
(lp3882
g270
asV\u5B5F
(lp3883
S'meng'
p3884
asV\u8461
(lp3885
g362
asV\u65E0
(lp3886
g282
ag1076
asV\u4F67
(lp3887
g1026
asV\u8869
(lp3888
g2468
ag279
asV\u6079
(lp3889
g365
asV\u88FE
(lp3890
g643
asV\u5185
(lp3891
S'nei'
p3892
asV\u9C87
(lp3893
g810
asV\u7F06
(lp3894
g2218
asV\u5B89
(lp3895
S'an'
p3896
asV\u868B
(lp3897
g383
asV\u630E
(lp3898
S'kua'
p3899
asV\u4F91
(lp3900
g258
asV\u8A93
(lp3901
g1523
asV\u6D12
(lp3902
S'sa'
p3903
asV\u7E9B
(lp3904
g1081
asV\u789F
(lp3905
g408
asV\u6CA7
(lp3906
S'cang'
p3907
asV\u4F26
(lp3908
g1966
asV\u742C
(lp3909
g750
asV\u5AB3
(lp3910
g2113
asV\u7834
(lp3911
g332
asV\u83B9
(lp3912
g1820
asV\u9542
(lp3913
g2132
asV\u6FD1
(lp3914
g87
asV\u4E50
(lp3915
g48
ag273
asV\u94D7
(lp3916
g631
asV\u53D9
(lp3917
g2050
asV\u9EDB
(lp3918
g1815
asV\u5DDD
(lp3919
g1085
asV\u98DF
(lp3920
g796
ag866
asV\u82E3
(lp3921
g209
ag3490
asV\u6562
(lp3922
g222
asV\u6F66
(lp3923
g2670
ag499
asV\u70EF
(lp3924
g32
asV\u536E
(lp3925
g52
asV\u9E70
(lp3926
g66
asV\u9701
(lp3927
g391
asV\u5203
(lp3928
g1417
asV\u7A88
(lp3929
g218
asV\u6E90
(lp3930
g336
asV\u919A
(lp3931
g831
asV\u5C9C
(lp3932
g388
asV\u902F
(lp3933
g110
asV\u73AE
(lp3934
g806
asV\u5F31
(lp3935
g2727
asV\u67B6
(lp3936
g2214
asV\u96C0
(lp3937
g1312
ag2993
ag20
asV\u90C4
(lp3938
g312
asV\u5FC6
(lp3939
g148
asV\u664B
(lp3940
g902
asV\u59CA
(lp3941
g1347
asV\u88D4
(lp3942
g148
asV\u5457
(lp3943
g3137
aS'bei'
p3944
asV\u5E5B
(lp3945
g1546
asV\u7CDC
(lp3946
g804
ag831
asV\u8165
(lp3947
g3467
asV\u7F71
(lp3948
g2218
asV\u8BFE
(lp3949
g178
asV\u5085
(lp3950
g62
asV\u878B
(lp3951
g637
asV\u818F
(lp3952
g1016
aS'gao'
p3953
asV\u620E
(lp3954
g592
asV\u4E91
(lp3955
g1921
asV\u7597
(lp3956
g498
asV\u501A
(lp3957
g1911
asV\u63A3
(lp3958
g1622
asV\u6DA7
(lp3959
g262
asV\u57AB
(lp3960
g142
asV\u94AD
(lp3961
S'tou'
p3962
asV\u752C
(lp3963
g1702
asV\u51AF
(lp3964
g3824
ag824
asV\u7F30
(lp3965
g304
asV\u5BB3
(lp3966
g1808
asV\u7934
(lp3967
g398
asV\u82B9
(lp3968
g507
asV\u6D3C
(lp3969
g224
asV\u5740
(lp3970
g924
asV\u5144
(lp3971
g1989
asV\u9E46
(lp3972
g231
asV\u64CD
(lp3973
g2117
asV\u6ED1
(lp3974
g875
asV\u4F50
(lp3975
g2684
asV\u68D5
(lp3976
g519
asV\u7656
(lp3977
g260
asV\u77EB
(lp3978
g359
ag1066
ag360
asV\u956C
(lp3979
g334
asV\u9974
(lp3980
g599
asV\u65F7
(lp3981
g2244
asV\u8378
(lp3982
g3068
asV\u69FF
(lp3983
g711
asV\u9601
(lp3984
g85
asV\u7780
(lp3985
g608
asV\u9005
(lp3986
g120
asV\u7184
(lp3987
g32
asV\u5D07
(lp3988
g678
asV\u840D
(lp3989
g824
asV\u658C
(lp3990
g102
asV\u8815
(lp3991
g976
asV\u6994
(lp3992
g474
asV\u5398
(lp3993
g146
asV\u9A9E
(lp3994
g176
asV\u6025
(lp3995
g11
asV\u542D
(lp3996
g1308
aS'keng'
p3997
asV\u912F
(lp3998
g1708
asV\u5E31
(lp3999
g944
ag1081
asV\u7CB2
(lp4000
g836
asV\u5835
(lp4001
g2542
asV\u8537
(lp4002
S'qiang'
p4003
asV\u54C2
(lp4004
g1355
asV\u8FD0
(lp4005
g1160
asV\u67E0
(lp4006
g1726
asV\u746D
(lp4007
g2235
asV\u55EC
(lp4008
g1371
asV\u6279
(lp4009
g199
asV\u80FA
(lp4010
g454
asV\u6C7D
(lp4011
g12
asV\u5981
(lp4012
g666
asV\u5F85
(lp4013
g3229
ag1815
asV\u5589
(lp4014
g3153
asV\u888B
(lp4015
g1815
asV\u8E8F
(lp4016
g1191
asV\u6D0E
(lp4017
g391
asV\u7A97
(lp4018
g3584
asV\u5916
(lp4019
S'wai'
p4020
asV\u6CA3
(lp4021
g620
asV\u8428
(lp4022
S'sa'
p4023
asV\u54B3
(lp4024
g955
ag1770
asV\u7634
(lp4025
g1546
asV\u6C38
(lp4026
g1702
asV\u83BD
(lp4027
g1186
asV\u79C1
(lp4028
g292
asV\u9B42
(lp4029
S'hun'
p4030
asV\u7FC5
(lp4031
g758
asV\u5E44
(lp4032
g1605
asV\u9146
(lp4033
g620
asV\u75C9
(lp4034
g2128
asV\u5448
(lp4035
g814
asV\u6BCD
(lp4036
g3453
asV\u8D4E
(lp4037
g2936
asV\u61D1
(lp4038
g1436
asV\u8352
(lp4039
g1678
asV\u7956
(lp4040
g3472
asV\u90DB
(lp4041
g193
asV\u7F5A
(lp4042
g1868
asV\u6B62
(lp4043
g924
asV\u676A
(lp4044
g299
asV\u9A6C
(lp4045
g557
asV\u7EEF
(lp4046
g1860
asV\u9674
(lp4047
g207
asV\u8C78
(lp4048
g53
asV\u66FF
(lp4049
g1577
asV\u5207
(lp4050
S'qie'
p4051
ag312
asV\u9509
(lp4052
S'cuo'
p4053
asV\u8111
(lp4054
S'nao'
p4055
asV\u8715
(lp4056
g645
asV\u9996
(lp4057
g1983
asV\u5C98
(lp4058
g36
asV\u9F9A
(lp4059
g691
asV\u731D
(lp4060
g1122
asV\u8BA2
(lp4061
g2871
asV\u4EA4
(lp4062
g789
asV\u81A6
(lp4063
g1191
asV\u9E2F
(lp4064
S'yang'
p4065
asV\u7DAE
(lp4066
g190
ag580
asV\u73B2
(lp4067
g1012
asV\u803B
(lp4068
g195
asV\u5BC2
(lp4069
g391
asV\u9EC4
(lp4070
g89
asV\u7247
(lp4071
g251
aS'pian'
p4072
asV\u51C6
(lp4073
S'zhun'
p4074
asV\u94C8
(lp4075
g1523
asV\u86D4
(lp4076
S'hui'
p4077
asV\u68E0
(lp4078
g2235
asV\u6EE4
(lp4079
g2560
asV\u56F4
(lp4080
g1037
asV\u5881
(lp4081
g616
asV\u7A02
(lp4082
g474
asV\u760A
(lp4083
g3153
asV\u8F8F
(lp4084
g812
asV\u6212
(lp4085
g708
asV\u7B97
(lp4086
S'suan'
p4087
asV\u5E1A
(lp4088
S'zhou'
p4089
asV\u779F
(lp4090
g2023
asV\u541E
(lp4091
S'tun'
p4092
asV\u6DA3
(lp4093
g136
asV\u63A7
(lp4094
g1239
asV\u59AB
(lp4095
g1463
asV\u7B2C
(lp4096
g478
asV\u90B1
(lp4097
S'qiu'
p4098
asV\u7130
(lp4099
g174
asV\u55B3
(lp4100
g1098
ag1350
asV\u82BD
(lp4101
g1091
asV\u78C1
(lp4102
g515
asV\u7EC5
(lp4103
g2253
asV\u60D1
(lp4104
g334
asV\u7856
(lp4105
g243
asV\u5CD9
(lp4106
g1523
ag53
asV\u745E
(lp4107
g383
asV\u8DE3
(lp4108
g486
asV\u4EE5
(lp4109
g1911
asV\u79EB
(lp4110
g2936
asV\u9170
(lp4111
g834
asV\u5272
(lp4112
g964
asV\u9774
(lp4113
S'xue'
p4114
asV\u837C
(lp4115
g1279
asV\u67FF
(lp4116
g1523
asV\u7980
(lp4117
g1056
asV\u5D03
(lp4118
g2580
asV\u4F0F
(lp4119
g193
asV\u9896
(lp4120
g412
asV\u721D
(lp4121
g302
asV\u949E
(lp4122
g1937
asV\u6821
(lp4123
g1067
ag905
asV\u6E25
(lp4124
g1605
asV\u86AA
(lp4125
g3028
asV\u9F2F
(lp4126
g1076
asV\u7CAE
(lp4127
g510
asV\u6EBA
(lp4128
g940
ag983
asV\u873F
(lp4129
g1705
asV\u5AC2
(lp4130
S'sao'
p4131
asV\u56CA
(lp4132
S'nang'
p4133
aS'nang'
p4134
asV\u8BCC
(lp4135
g1184
asV\u5B57
(lp4136
g1289
asV\u575F
(lp4137
g1535
asV\u8861
(lp4138
g1309
asV\u69E0
(lp4139
g773
asV\u8469
(lp4140
g393
asV\u65E8
(lp4141
g924
asV\u51F0
(lp4142
g89
asV\u57F4
(lp4143
g922
asV\u6C79
(lp4144
g1989
asV\u5B81
(lp4145
g1726
ag245
asV\u8693
(lp4146
g2105
asV\u7897
(lp4147
g750
asV\u5B16
(lp4148
g192
asV\u8C24
(lp4149
g1197
asV\u782C
(lp4150
g2792
asV\u7230
(lp4151
g336
asV\u7434
(lp4152
g507
asV\u8FB9
(lp4153
g2282
aS'bian'
p4154
asV\u6E38
(lp4155
g320
asV\u603C
(lp4156
g2067
asV\u7BC1
(lp4157
g89
asV\u5A40
(lp4158
S'e'
asV\u954A
(lp4159
g108
asV\u7B56
(lp4160
g377
asV\u5FD9
(lp4161
g1474
asV\u51DD
(lp4162
g1726
asV\u94DF
(lp4163
g167
asV\u80E7
(lp4164
g450
asV\u7CEF
(lp4165
g2388
asV\u7A80
(lp4166
S'zhun'
p4167
asV\u5E03
(lp4168
g126
asV\u9709
(lp4169
g804
asV\u7688
(lp4170
g1463
asV\u8311
(lp4171
g1479
asV\u7F19
(lp4172
g902
asV\u6B21
(lp4173
S'ci'
p4174
asV\u6D25
(lp4175
g1717
asV\u85AA
(lp4176
g684
asV\u592D
(lp4177
g2373
asV\u9633
(lp4178
g2424
asV\u823B
(lp4179
g50
asV\u9AC0
(lp4180
g192
asV\u9CC4
(lp4181
S'e'
asV\u4FCE
(lp4182
g3472
asV\u6653
(lp4183
g3254
asV\u7ED8
(lp4184
g1101
asV\u915D
(lp4185
g1160
asV\u796D
(lp4186
g391
ag134
asV\u58EC
(lp4187
g1369
asV\u52F0
(lp4188
g590
asV\u8BF6
(lp4189
S'ei'
p4190
aS'ei'
p4191
aS'ei'
p4192
asV\u8DFA
(lp4193
g860
asV\u87FE
(lp4194
g1054
asV\u9F83
(lp4195
g429
asV\u7802
(lp4196
g704
asV\u9187
(lp4197
g767
asV\u7206
(lp4198
g1230
asV\u740A
(lp4199
g1091
asV\u6E0E
(lp4200
g681
asV\u8793
(lp4201
g507
asV\u6012
(lp4202
S'nu'
p4203
asV\u739B
(lp4204
g557
asV\u5C1A
(lp4205
g115
asV\u759F
(lp4206
g3
asV\u561E
(lp4207
S'lei'
p4208
asV\u8D24
(lp4209
g1753
asV\u61A7
(lp4210
g1756
asV\u5BAB
(lp4211
g691
asV\u94B5
(lp4212
g1096
asV\u80BD
(lp4213
g512
asV\u5B40
(lp4214
S'shuang'
p4215
asV\u7CC5
(lp4216
g3391
asV\u68CD
(lp4217
S'gun'
p4218
asV\u8052
(lp4219
g541
asV\u765E
(lp4220
g87
asV\u6862
(lp4221
g150
asV\u81E7
(lp4222
g1991
asV\u6266
(lp4223
g176
asV\u996C
(lp4224
g758
asV\u77F3
(lp4225
g675
ag796
asV\u8F78
(lp4226
g1398
asV\u817C
(lp4227
g749
asV\u7B80
(lp4228
g601
asV\u5F03
(lp4229
g12
asV\u5107
(lp4230
g1357
asV\u9609
(lp4231
g365
asV\u6390
(lp4232
g1302
asV\u9A96
(lp4233
g124
asV\u5F98
(lp4234
g40
asV\u9C9A
(lp4235
g391
asV\u519C
(lp4236
g3645
asV\u6A21
(lp4237
g282
aS'mu'
p4238
asV\u88A2
(lp4239
g1103
asV\u82A6
(lp4240
g50
ag1362
asV\u5435
(lp4241
g1937
aS'chao'
p4242
asV\u4E39
(lp4243
g2675
asV\u66BE
(lp4244
g4092
asV\u89CC
(lp4245
g1498
asV\u6D4F
(lp4246
g1513
asV\u4ECE
(lp4247
g1797
ag817
asV\u6753
(lp4248
g56
ag3020
asV\u5957
(lp4249
S'tao'
p4250
asV\u7FD8
(lp4251
g582
ag873
asV\u4F63
(lp4252
g539
aS'yong'
p4253
asV\u6DE4
(lp4254
S'yu'
p4255
asV\u786D
(lp4256
g1474
asV\u59EC
(lp4257
g189
asV\u53F0
(lp4258
S'tai'
p4259
ag2072
asV\u4FF8
(lp4260
g775
asV\u607D
(lp4261
g1160
asV\u86FE
(lp4262
S'e'
ag1911
asV\u9883
(lp4263
g1308
asV\u7F02
(lp4264
g178
asV\u5B85
(lp4265
g2534
asV\u5189
(lp4266
S'ran'
p4267
asV\u730A
(lp4268
g627
asV\u4F8D
(lp4269
g1523
asV\u690E
(lp4270
g100
ag1774
asV\u8093
(lp4271
g1678
asV\u5D16
(lp4272
g1091
asV\u961C
(lp4273
g62
asV\u729F
(lp4274
g587
asV\u8C20
(lp4275
g1892
asV\u4F22
(lp4276
g1091
asV\u66A7
(lp4277
g1078
asV\u8028
(lp4278
S'nou'
p4279
asV\u5CAB
(lp4280
g256
asV\u7430
(lp4281
g694
asV\u6838
(lp4282
g26
ag18
asV\u87BD
(lp4283
g235
asV\u663C
(lp4284
g2324
asV\u5C40
(lp4285
g1083
asV\u9546
(lp4286
g375
asV\u5048
(lp4287
g391
ag172
asV\u4E4C
(lp4288
g1195
ag1176
asV\u94DB
(lp4289
g744
ag405
asV\u7B5A
(lp4290
g192
asV\u57DD
(lp4291
g60
asV\u715E
(lp4292
g704
ag1367
asV\u88E3
(lp4293
g275
asV\u6F62
(lp4294
g89
asV\u6566
(lp4295
g2067
aS'dun'
p4296
asV\u9E6C
(lp4297
g231
asV\u7AEF
(lp4298
S'duan'
p4299
asV\u9274
(lp4300
g262
asV\u867C
(lp4301
g992
asV\u62FF
(lp4302
g2593
asV\u7A84
(lp4303
S'zhai'
p4304
asV\u8511
(lp4305
g69
asV\u8315
(lp4306
g736
asV\u83AA
(lp4307
S'e'
asV\u5F2D
(lp4308
g3014
asV\u5531
(lp4309
g184
asV\u61BE
(lp4310
g1334
asV\u53CA
(lp4311
g11
asV\u84D0
(lp4312
S'ru'
p4313
asV\u82D4
(lp4314
g4259
ag2072
asV\u545B
(lp4315
g1715
ag3306
asV\u8D61
(lp4316
g1708
asV\u6CE0
(lp4317
g1012
asV\u8169
(lp4318
g2572
asV\u60E8
(lp4319
g211
ag836
asV\u6979
(lp4320
g1820
asV\u8BFA
(lp4321
g2388
asV\u81FE
(lp4322
g270
asV\u5C81
(lp4323
g2009
asV\u7406
(lp4324
g1412
asV\u8D8B
(lp4325
g1267
asV\u4E8D
(lp4326
g1395
asV\u680E
(lp4327
g91
ag273
asV\u5C16
(lp4328
g117
asV\u971C
(lp4329
g4215
asV\u739F
(lp4330
g3440
asV\u4E22
(lp4331
S'diu'
p4332
asV\u67A7
(lp4333
g601
asV\u7F2C
(lp4334
g590
asV\u94B1
(lp4335
g118
asV\u7530
(lp4336
g1129
asV\u51B3
(lp4337
g302
asV\u7334
(lp4338
g3153
asV\u7CC1
(lp4339
g1565
ag2253
asV\u9E42
(lp4340
g146
asV\u5148
(lp4341
g834
asV\u56DD
(lp4342
g601
ag3046
asV\u705E
(lp4343
g2975
asV\u89E3
(lp4344
S'jie'
p4345
ag708
ag310
asV\u626A
(lp4346
S'men'
p4347
asV\u9570
(lp4348
g306
asV\u877C
(lp4349
g2202
asV\u63FF
(lp4350
g1207
asV\u9009
(lp4351
g308
asV\u6F8C
(lp4352
g292
asV\u8411
(lp4353
g799
asV\u6590
(lp4354
g1304
asV\u9A9A
(lp4355
g1155
asV\u6C21
(lp4356
S'dong'
p4357
asV\u6029
(lp4358
g627
asV\u82AA
(lp4359
g476
asV\u5E2D
(lp4360
g2113
asV\u9B2F
(lp4361
g184
asV\u5431
(lp4362
g52
ag516
asV\u76B2
(lp4363
g2099
asV\u853B
(lp4364
g1932
asV\u7747
(lp4365
g478
asV\u54C6
(lp4366
g1612
asV\u6D4B
(lp4367
g377
asV\u85D0
(lp4368
g299
asV\u83D4
(lp4369
g193
asV\u5F57
(lp4370
g1101
asV\u79D8
(lp4371
g192
ag28
ag868
asV\u77DC
(lp4372
g995
ag1717
ag507
asV\u535F
(lp4373
g934
asV\u8C61
(lp4374
g315
asV\u6DE0
(lp4375
g828
asV\u8069
(lp4376
g2029
asV\u7275
(lp4377
g176
asV\u5F81
(lp4378
g1487
asV\u9487
(lp4379
g1911
asV\u5389
(lp4380
g91
asV\u710A
(lp4381
g1334
asV\u6512
(lp4382
S'cuan'
p4383
ag2846
asV\u7C97
(lp4384
S'cu'
p4385
asV\u591A
(lp4386
g1612
asV\u8228
(lp4387
g2470
asV\u7630
(lp4388
S'luo'
p4389
asV\u52B3
(lp4390
g165
asV\u91B5
(lp4391
g209
asV\u8BB9
(lp4392
S'e'
asV\u7FC1
(lp4393
g2863
asV\u5844
(lp4394
g2861
asV\u73C9
(lp4395
g3440
asV\u914A
(lp4396
g3294
aS'ding'
p4397
asV\u67D1
(lp4398
g425
asV\u9CD7
(lp4399
g277
asV\u795A
(lp4400
g441
asV\u55DD
(lp4401
g85
asV\u4FE1
(lp4402
g1402
asV\u7EEB
(lp4403
g1012
asV\u72F3
(lp4404
g270
asV\u9074
(lp4405
g28
asV\u6CF7
(lp4406
g450
ag4215
asV\u4F76
(lp4407
g11
asV\u5A03
(lp4408
S'wa'
p4409
asV\u4E0B
(lp4410
g1956
asV\u6C8C
(lp4411
g93
ag1636
asV\u6094
(lp4412
g3214
asV\u7B19
(lp4413
g2124
asV\u9E2B
(lp4414
g4357
asV\u81AA
(lp4415
g1745
asV\u5D2D
(lp4416
S'zhan'
p4417
asV\u75B2
(lp4418
g207
asV\u8C37
(lp4419
g597
ag231
asV\u6FB6
(lp4420
g1054
asV\u803F
(lp4421
g3203
asV\u63BE
(lp4422
g1581
asV\u92C8
(lp4423
g1176
asV\u86D0
(lp4424
g1267
asV\u6253
(lp4425
g443
aS'da'
p4426
asV\u955D
(lp4427
g104
ag1498
asV\u74DC
(lp4428
g97
asV\u6EE0
(lp4429
g5
asV\u8369
(lp4430
g902
asV\u62E8
(lp4431
g1096
asV\u56F0
(lp4432
S'kun'
p4433
asV\u95F2
(lp4434
g1753
asV\u6B79
(lp4435
g437
asV\u5885
(lp4436
g660
asV\u8F8B
(lp4437
g154
asV\u8393
(lp4438
g804
asV\u5E16
(lp4439
g3434
aS'tie'
p4440
ag2315
asV\u719F
(lp4441
S'shou'
p4442
ag2936
asV\u65A7
(lp4443
g917
asV\u8328
(lp4444
g515
asV\u9CAD
(lp4445
g2015
ag1487
asV\u59AF
(lp4446
g2665
asV\u90B5
(lp4447
g466
asV\u84BD
(lp4448
S'en'
p4449
asV\u7EC1
(lp4450
g310
asV\u5F40
(lp4451
g760
asV\u78C5
(lp4452
g1197
ag1870
asV\u5944
(lp4453
g694
asV\u9646
(lp4454
g253
ag110
asV\u5348
(lp4455
g472
asV\u60D5
(lp4456
g1577
asV\u54DD
(lp4457
g3645
asV\u4EE1
(lp4458
g964
ag148
asV\u8BE3
(lp4459
g148
asV\u6666
(lp4460
g1101
asV\u606A
(lp4461
g178
asV\u79EF
(lp4462
g189
asV\u5472
(lp4463
S'ci'
p4464
ag516
asV\u9174
(lp4465
g1279
asV\u6DF7
(lp4466
g4030
ag2319
asV\u61FF
(lp4467
g148
asV\u7984
(lp4468
g110
asV\u5507
(lp4469
g767
asV\u8C0D
(lp4470
g408
asV\u6D8C
(lp4471
g1756
ag1702
asV\u8611
(lp4472
g282
asV\u6790
(lp4473
g32
asV\u8015
(lp4474
g863
asV\u6194
(lp4475
g582
asV\u5B98
(lp4476
g995
asV\u989A
(lp4477
S'e'
asV\u559C
(lp4478
g2602
asV\u6E21
(lp4479
g3057
asV\u4FA0
(lp4480
g243
asV\u80AA
(lp4481
g2395
asV\u5631
(lp4482
g880
asV\u8D37
(lp4483
g1815
asV\u6EB6
(lp4484
g592
asV\u873B
(lp4485
g2015
asV\u6F4B
(lp4486
g3196
asV\u8DCC
(lp4487
g756
asV\u575B
(lp4488
g7
asV\u6FE0
(lp4489
g160
asV\u8865
(lp4490
g934
asV\u94F2
(lp4491
g972
asV\u7075
(lp4492
g1012
asV\u6A79
(lp4493
g1362
asV\u8302
(lp4494
g608
asV\u950E
(lp4495
g2479
asV\u5E14
(lp4496
g295
asV\u8297
(lp4497
g314
asV\u94A3
(lp4498
g2470
asV\u7624
(lp4499
g1513
asV\u9AA7
(lp4500
g314
asV\u63AD
(lp4501
S'tian'
p4502
asV\u822C
(lp4503
g532
ag1096
ag202
asV\u69B1
(lp4504
g2504
asV\u75B9
(lp4505
g1398
asV\u573A
(lp4506
g985
ag1105
asV\u5D3E
(lp4507
g218
asV\u81C1
(lp4508
g306
asV\u6342
(lp4509
g1076
ag472
asV\u754E
(lp4510
g2990
asV\u7B52
(lp4511
g1211
asV\u62D7
(lp4512
S'ao'
p4513
ag342
aS'niu'
p4514
asV\u6EDF
(lp4515
g174
asV\u8D5E
(lp4516
g1295
asV\u74E3
(lp4517
g140
asV\u5664
(lp4518
g902
asV\u80EB
(lp4519
g2128
asV\u626C
(lp4520
g2424
asV\u6101
(lp4521
g944
asV\u9890
(lp4522
g599
asV\u7F15
(lp4523
g182
asV\u679A
(lp4524
g804
asV\u6D9E
(lp4525
g2580
asV\u5423
(lp4526
g1207
asV\u73A2
(lp4527
g102
ag79
asV\u602B
(lp4528
g193
asV\u662F
(lp4529
g1523
asV\u85AE
(lp4530
g431
asV\u8BB2
(lp4531
g2045
asV\u7237
(lp4532
g1519
asV\u54B8
(lp4533
g1753
asV\u783B
(lp4534
g450
asV\u5951
(lp4535
g12
ag310
asV\u78D0
(lp4536
g202
asV\u5F55
(lp4537
g110
asV\u7ED4
(lp4538
g423
asV\u6559
(lp4539
g789
ag1067
asV\u7765
(lp4540
g828
asV\u5FEA
(lp4541
g2192
ag235
asV\u836D
(lp4542
g1587
asV\u65EE
(lp4543
g326
asV\u8F75
(lp4544
g924
asV\u5E7F
(lp4545
g3896
ag30
asV\u8202
(lp4546
g1756
asV\u6B87
(lp4547
g505
asV\u8E0A
(lp4548
g1702
asV\u6518
(lp4549
g1337
asV\u8F9F
(lp4550
g192
ag199
ag828
asV\u5CA9
(lp4551
g969
asV\u832C
(lp4552
g662
asV\u8930
(lp4553
g176
asV\u9538
(lp4554
g1098
asV\u9B3C
(lp4555
g1179
asV\u5C3E
(lp4556
g806
ag1911
asV\u80C1
(lp4557
g590
asV\u6846
(lp4558
g284
ag2244
asV\u51CB
(lp4559
g1386
asV\u57CF
(lp4560
g855
asV\u98D1
(lp4561
g56
asV\u69DB
(lp4562
g262
ag1127
asV\u865A
(lp4563
g106
asV\u75E3
(lp4564
g53
asV\u5764
(lp4565
g2278
asV\u9E6A
(lp4566
g789
asV\u8DF3
(lp4567
g1909
asV\u4EF5
(lp4568
g472
asV\u6F74
(lp4569
g773
asV\u7578
(lp4570
g189
asV\u6001
(lp4571
g512
asV\u8180
(lp4572
g385
ag1197
ag1259
ag1870
asV\u548E
(lp4573
g2185
asV\u7811
(lp4574
g1683
asV\u9990
(lp4575
g896
asV\u5A92
(lp4576
g804
asV\u6096
(lp4577
g530
asV\u4F1F
(lp4578
g806
asV\u9021
(lp4579
S'qun'
p4580
asV\u5523
(lp4581
g163
asV\u612B
(lp4582
g791
asV\u7EAA
(lp4583
g205
ag391
asV\u672F
(lp4584
g660
ag784
asV\u6D33
(lp4585
g4313
asV\u7337
(lp4586
g320
asV\u90B6
(lp4587
g530
asV\u8543
(lp4588
g1947
ag858
asV\u67C4
(lp4589
g1056
asV\u914B
(lp4590
g802
asV\u524D
(lp4591
g118
asV\u5851
(lp4592
g791
asV\u5E55
(lp4593
g852
asV\u7FD4
(lp4594
g588
asV\u8BDC
(lp4595
g2253
asV\u5EEA
(lp4596
S'lin'
p4597
asV\u5377
(lp4598
S'juan'
p4599
ag1945
asV\u9A7D
(lp4600
S'nu'
p4601
asV\u8102
(lp4602
g52
asV\u4E08
(lp4603
g1546
asV\u728B
(lp4604
g209
asV\u500C
(lp4605
g995
asV\u970E
(lp4606
g1367
asV\u5C14
(lp4607
g462
asV\u98A7
(lp4608
g907
asV\u6DB5
(lp4609
g501
asV\u8C34
(lp4610
g1918
asV\u79BD
(lp4611
g507
asV\u83C1
(lp4612
g247
asV\u6B46
(lp4613
g684
asV\u52CB
(lp4614
g658
asV\u6D4A
(lp4615
g536
asV\u91CD
(lp4616
g678
ag3221
asV\u54CF
(lp4617
S'gen'
p4618
asV\u5ED3
(lp4619
g98
asV\u9162
(lp4620
g1122
ag441
asV\u5464
(lp4621
g2083
asV\u82EB
(lp4622
g855
ag1708
asV\u606C
(lp4623
g1129
asV\u6C74
(lp4624
g401
asV\u57F9
(lp4625
g3870
asV\u7678
(lp4626
g1179
asV\u9AFB
(lp4627
g391
asV\u787C
(lp4628
g1985
asV\u6301
(lp4629
g71
asV\u6F09
(lp4630
g110
asV\u7B11
(lp4631
g905
asV\u9A90
(lp4632
g476
asV\u5992
(lp4633
g3057
asV\u9C94
(lp4634
g806
asV\u6396
(lp4635
g1518
ag2043
asV\u5623
(lp4636
g77
asV\u9525
(lp4637
g1774
asV\u7BA6
(lp4638
g717
asV\u7A3B
(lp4639
g1081
asV\u58BC
(lp4640
g189
asV\u7C3F
(lp4641
g126
asV\u514D
(lp4642
g749
asV\u5B51
(lp4643
g172
asV\u86D8
(lp4644
g2424
asV\u695D
(lp4645
g3196
asV\u4FDE
(lp4646
g660
ag270
asV\u94E4
(lp4647
g2871
aS'ting'
p4648
asV\u7F69
(lp4649
g1139
asV\u816D
(lp4650
S'e'
asV\u4E73
(lp4651
g2973
asV\u69F2
(lp4652
g18
asV\u8D75
(lp4653
g1139
asV\u5077
(lp4654
S'tou'
p4655
asV\u997D
(lp4656
g1096
asV\u5C7F
(lp4657
g271
asV\u6987
(lp4658
g1569
asV\u738B
(lp4659
g2134
ag2290
asV\u8C0A
(lp4660
g148
asV\u758F
(lp4661
g445
asV\u960E
(lp4662
g969
asV\u5D14
(lp4663
g2504
asV\u8D9F
(lp4664
S'tang'
p4665
ag3573
asV\u52A1
(lp4666
g1176
asV\u97A3
(lp4667
g3391
asV\u7F28
(lp4668
g66
asV\u60AD
(lp4669
g176
asV\u812C
(lp4670
g2407
asV\u8D34
(lp4671
g3434
asV\u5236
(lp4672
g53
asV\u9738
(lp4673
g2975
asV\u82C1
(lp4674
g1797
asV\u6042
(lp4675
g290
asV\u53CB
(lp4676
g2355
asV\u6C4A
(lp4677
g279
asV\u9AD1
(lp4678
g681
asV\u7852
(lp4679
g32
asV\u9CD5
(lp4680
g958
asV\u6BDB
(lp4681
g417
asV\u845A
(lp4682
g1417
ag1584
asV\u5360
(lp4683
g1365
ag673
asV\u77E3
(lp4684
g1911
asV\u9062
(lp4685
g1204
asV\u5564
(lp4686
g207
asV\u79E7
(lp4687
g4065
asV\u8FF3
(lp4688
g2128
asV\u6D74
(lp4689
g231
asV\u56F9
(lp4690
g1012
asV\u6405
(lp4691
g359
ag360
asV\u8584
(lp4692
g370
ag398
ag2627
asV\u8F88
(lp4693
g530
asV\u918C
(lp4694
g2278
asV\u568E
(lp4695
g160
asV\u5892
(lp4696
g505
asV\u6296
(lp4697
g3028
asV\u5723
(lp4698
g850
asV\u5927
(lp4699
S'da'
p4700
ag1815
asV\u7AA6
(lp4701
g1616
asV\u9E29
(lp4702
S'zhen'
p4703
asV\u632B
(lp4704
g4053
asV\u7CAA
(lp4705
g169
asV\u652F
(lp4706
g52
asV\u6F33
(lp4707
g573
asV\u57B8
(lp4708
g1581
asV\u94BA
(lp4709
g273
asV\u9EBE
(lp4710
g3042
asV\u65C4
(lp4711
g417
asV\u4E49
(lp4712
g148
asV\u954F
(lp4713
g1513
ag253
asV\u5C55
(lp4714
g4417
asV\u89DC
(lp4715
g516
ag1776
asV\u4EDE
(lp4716
g1417
asV\u7261
(lp4717
g3453
asV\u5AE6
(lp4718
g985
asV\u5CEA
(lp4719
g231
asV\u4F73
(lp4720
g522
asV\u5177
(lp4721
g209
asV\u987D
(lp4722
g288
asV\u7EFE
(lp4723
g750
asV\u6083
(lp4724
S'kun'
p4725
asV\u8702
(lp4726
g620
asV\u748B
(lp4727
g573
asV\u560C
(lp4728
g3315
asV\u728F
(lp4729
g251
asV\u7893
(lp4730
g2067
asV\u4F9D
(lp4731
g9
asV\u90A3
(lp4732
g3648
aS'na'
p4733
ag721
ag3892
asV\u53A5
(lp4734
g302
asV\u59A9
(lp4735
g472
asV\u67AD
(lp4736
g227
asV\u8C30
(lp4737
g549
asV\u4F32
(lp4738
g940
asV\u6BB5
(lp4739
g2384
asV\u71B9
(lp4740
g32
asV\u9038
(lp4741
g148
asV\u533A
(lp4742
g584
ag1267
asV\u7FBD
(lp4743
g271
asV\u85C1
(lp4744
g883
asV\u6742
(lp4745
g3329
asV\u83C5
(lp4746
g117
asV\u4EC7
(lp4747
g944
ag802
asV\u6D46
(lp4748
g304
ag587
asV\u89C9
(lp4749
g1067
ag302
asV\u714E
(lp4750
g117
asV\u8556
(lp4751
g898
asV\u6CDB
(lp4752
g858
ag1749
asV\u835A
(lp4753
g631
asV\u4E5C
(lp4754
S'mie'
p4755
ag108
asV\u895E
(lp4756
g192
asV\u9762
(lp4757
S'mian'
p4758
asV\u7EE7
(lp4759
g391
asV\u82EF
(lp4760
g2914
asV\u6C70
(lp4761
g512
asV\u88F3
(lp4762
g985
aS'shang'
p4763
asV\u96F7
(lp4764
g763
asV\u51F9
(lp4765
S'ao'
p4766
ag224
asV\u7078
(lp4767
g1767
asV\u5FFD
(lp4768
g1724
asV\u8284
(lp4769
g288
asV\u8888
(lp4770
g522
asV\u770D
(lp4771
g1620
asV\u9C90
(lp4772
g2072
asV\u5F92
(lp4773
g1279
asV\u7B15
(lp4774
g601
asV\u9521
(lp4775
g32
asV\u77A2
(lp4776
g129
asV\u5E27
(lp4777
g2566
asV\u7DA6
(lp4778
g476
asV\u7BAA
(lp4779
g2675
asV\u6833
(lp4780
g2670
asV\u7A3F
(lp4781
g883
asV\u64C0
(lp4782
g222
asV\u8043
(lp4783
g2675
asV\u62C4
(lp4784
g880
asV\u8E47
(lp4785
g601
asV\u574D
(lp4786
g1692
asV\u5B55
(lp4787
g1160
asV\u94E0
(lp4788
g1975
asV\u5DE6
(lp4789
g2684
asV\u98E8
(lp4790
g706
asV\u9179
(lp4791
g764
asV\u5A7F
(lp4792
g2050
asV\u8C06
(lp4793
g4167
asV\u758B
(lp4794
g260
ag445
ag3001
asV\u8797
(lp4795
g2235
asV\u91A3
(lp4796
g2235
asV\u58A9
(lp4797
g4296
asV\u6CB1
(lp4798
g1600
asV\u8D30
(lp4799
g2338
asV\u4E32
(lp4800
g2705
asV\u70B9
(lp4801
g1093
asV\u523A
(lp4802
g4464
ag4174
asV\u7EBD
(lp4803
g2699
asV\u84C1
(lp4804
g150
asV\u6C46
(lp4805
g1502
asV\u88C9
(lp4806
S'ken'
p4807
asV\u96CD
(lp4808
g539
asV\u59D3
(lp4809
g2035
asV\u825A
(lp4810
g577
asV\u4F5C
(lp4811
g1747
ag696
ag441
asV\u9662
(lp4812
g1581
asV\u5364
(lp4813
g1362
asV\u89F3
(lp4814
g18
asV\u7178
(lp4815
g2282
asV\u6401
(lp4816
g964
ag85
asV\u6809
(lp4817
g53
asV\u6496
(lp4818
g1334
asV\u8019
(lp4819
g2975
ag3111
asV\u629A
(lp4820
g917
asV\u8E1D
(lp4821
S'huai'
p4822
asV\u5F27
(lp4823
g18
asV\u652B
(lp4824
g302
asV\u632F
(lp4825
g4703
asV\u80AE
(lp4826
S'ang'
p4827
asV\u8EB2
(lp4828
g838
asV\u7737
(lp4829
g1945
asV\u94B6
(lp4830
g1033
asV\u5FBC
(lp4831
g359
ag360
ag1067
asV\u63C4
(lp4832
g270
asV\u564D
(lp4833
g1067
asV\u5C51
(lp4834
g310
asV\u5A55
(lp4835
g172
asV\u6059
(lp4836
g1904
asV\u8FDC
(lp4837
S'yuan'
p4838
asV\u56E2
(lp4839
g3323
asV\u5CE6
(lp4840
g348
asV\u60EE
(lp4841
g675
asV\u5777
(lp4842
g1033
ag1842
asV\u74F6
(lp4843
g824
asV\u72FA
(lp4844
g2326
asV\u768B
(lp4845
g1016
asV\u890A
(lp4846
S'bian'
p4847
asV\u540C
(lp4848
g562
aS'tong'
p4849
asV\u5E10
(lp4850
g1546
asV\u8497
(lp4851
g3685
asV\u6218
(lp4852
g673
asV\u57A1
(lp4853
g1868
asV\u7620
(lp4854
g11
asV\u51A5
(lp4855
g180
asV\u9CA7
(lp4856
g64
asV\u65AD
(lp4857
g2384
asV\u6F46
(lp4858
g1820
asV\u8BC9
(lp4859
g791
asV\u50CF
(lp4860
g315
asV\u64D7
(lp4861
g260
asV\u815A
(lp4862
g2871
asV\u9562
(lp4863
g302
asV\u996A
(lp4864
g1417
asV\u80EF
(lp4865
g3899
asV\u4FF1
(lp4866
g643
ag209
asV\u6874
(lp4867
g193
asV\u94F7
(lp4868
g976
asV\u53F9
(lp4869
g1751
asV\u9EFB
(lp4870
g193
asV\u5DFD
(lp4871
g503
asV\u7C7C
(lp4872
g834
asV\u8680
(lp4873
g796
asV\u8084
(lp4874
g148
asV\u750D
(lp4875
g129
asV\u948C
(lp4876
g499
ag1124
asV\u7F11
(lp4877
g887
asV\u9894
(lp4878
g1334
asV\u4E1B
(lp4879
g817
asV\u8D1D
(lp4880
g530
asV\u5C27
(lp4881
g330
asV\u602F
(lp4882
g312
asV\u7E3B
(lp4883
g831
asV\u91BA
(lp4884
g658
asV\u8C47
(lp4885
g304
asV\u964B
(lp4886
g2132
asV\u904F
(lp4887
S'e'
asV\u7ED0
(lp4888
g1815
asV\u5955
(lp4889
g148
asV\u78D4
(lp4890
g656
asV\u82D8
(lp4891
g1070
asV\u7761
(lp4892
g3495
asV\u96E0
(lp4893
g944
asV\u8F71
(lp4894
g44
asV\u5477
(lp4895
S'xia'
p4896
asV\u77F6
(lp4897
g189
asV\u5E7B
(lp4898
g136
asV\u7BFE
(lp4899
g69
asV\u880A
(lp4900
g306
asV\u718F
(lp4901
g658
ag503
asV\u5914
(lp4902
g1052
asV\u8F9B
(lp4903
g684
asV\u7720
(lp4904
g2921
asV\u50A5
(lp4905
S'tang'
p4906
asV\u7B28
(lp4907
g2924
asV\u64AD
(lp4908
g1096
asV\u852C
(lp4909
g445
asV\u6EB1
(lp4910
g507
ag150
asV\u68B5
(lp4911
g1749
asV\u8934
(lp4912
g549
asV\u5636
(lp4913
g292
asV\u72B9
(lp4914
g320
asV\u503A
(lp4915
g134
asV\u7CBD
(lp4916
S'zong'
p4917
asV\u57CB
(lp4918
g988
ag277
asV\u684A
(lp4919
g1945
asV\u94CD
(lp4920
g199
ag207
asV\u51CF
(lp4921
g601
asV\u9ED1
(lp4922
g956
asV\u5BD3
(lp4923
g231
asV\u98D5
(lp4924
g637
asV\u65D7
(lp4925
g476
asV\u805A
(lp4926
g209
asV\u69DF
(lp4927
g102
ag2508
asV\u5760
(lp4928
g909
asV\u9E66
(lp4929
g66
asV\u656C
(lp4930
g2128
asV\u8BF3
(lp4931
g1555
asV\u95F7
(lp4932
S'men'
p4933
ag1436
asV\u6005
(lp4934
g184
asV\u4E86
(lp4935
S'le'
p4936
ag499
ag1124
asV\u9994
(lp4937
g1636
asV\u6696
(lp4938
S'nuan'
p4939
asV\u4F1B
(lp4940
g271
asV\u609A
(lp4941
g2768
asV\u8C1D
(lp4942
S'pian'
p4943
asV\u9621
(lp4944
g176
asV\u5323
(lp4945
g243
asV\u5D27
(lp4946
g2192
asV\u7EA6
(lp4947
g2373
ag1340
asV\u672B
(lp4948
g375
asV\u82AE
(lp4949
g383
asV\u7537
(lp4950
g3649
asV\u96B6
(lp4951
g91
asV\u90BA
(lp4952
g2043
asV\u8343
(lp4953
g907
asV\u8D47
(lp4954
g802
asV\u914F
(lp4955
g1911
asV\u83D8
(lp4956
g2192
asV\u6C5D
(lp4957
g2973
asV\u846D
(lp4958
g522
asV\u62EE
(lp4959
g172
asV\u5577
(lp4960
S'lang'
p4961
asV\u5F7B
(lp4962
g1622
asV\u6C83
(lp4963
g1605
asV\u8106
(lp4964
g1419
asV\u870A
(lp4965
g146
asV\u5A0C
(lp4966
g1412
asV\u6C18
(lp4967
g1414
asV\u809B
(lp4968
g1061
asV\u9CA3
(lp4969
g117
asV\u7428
(lp4970
g2278
asV\u67B5
(lp4971
g227
asV\u5F3A
(lp4972
g587
ag4003
ag843
asV\u553E
(lp4973
g752
asV\u89C1
(lp4974
g262
ag36
asV\u8FC5
(lp4975
g503
asV\u85C9
(lp4976
g11
ag708
asV\u91D1
(lp4977
g1717
asV\u54D3
(lp4978
g227
asV\u7352
(lp4979
g226
asV\u855E
(lp4980
g2606
asV\u5468
(lp4981
g1184
asV\u6070
(lp4982
g1923
asV\u6674
(lp4983
g1559
asV\u53FD
(lp4984
g189
asV\u6901
(lp4985
g1249
asV\u6509
(lp4986
g1021
asV\u8488
(lp4987
g1975
asV\u9A8C
(lp4988
g174
asV\u9694
(lp4989
g85
asV\u7BA2
(lp4990
g439
asV\u9529
(lp4991
g4599
asV\u77AA
(lp4992
g1862
asV\u6E2F
(lp4993
g2458
asV\u83B2
(lp4994
g306
asV\u7A37
(lp4995
g391
asV\u5CB8
(lp4996
g454
asV\u763F
(lp4997
g412
asV\u68C0
(lp4998
g601
asV\u8247
(lp4999
g4648
asV\u9E4F
(lp5000
g1985
asV\u5151
(lp5001
g2067
asV\u76D4
(lp5002
g2719
asV\u6D59
(lp5003
g741
asV\u4FDA
(lp5004
g1412
asV\u82DC
(lp5005
g852
asV\u94E8
(lp5006
g907
asV\u6DEE
(lp5007
g4822
asV\u8171
(lp5008
g262
asV\u63F2
(lp5009
g408
asV\u5A77
(lp5010
g1174
asV\u507B
(lp5011
g2202
ag182
asV\u6387
(lp5012
g1612
asV\u8006
(lp5013
g476
asV\u819B
(lp5014
g2235
asV\u879F
(lp5015
g180
asV\u5EA5
(lp5016
g896
asV\u7F24
(lp5017
g102
asV\u54A9
(lp5018
g4755
asV\u7528
(lp5019
g4253
asV\u60B1
(lp5020
g1304
asV\u8734
(lp5021
g148
asV\u7CB9
(lp5022
g1419
asV\u543E
(lp5023
g1076
asV\u88C1
(lp5024
g2527
asV\u84C9
(lp5025
g592
asV\u59CB
(lp5026
g1731
asV\u5FCF
(lp5027
S'chan'
p5028
asV\u90D1
(lp5029
g2566
asV\u55D3
(lp5030
g885
asV\u7252
(lp5031
g408
asV\u96D5
(lp5032
g1386
asV\u6BD7
(lp5033
g207
asV\u5960
(lp5034
g142
asV\u5F64
(lp5035
g562
asV\u73E7
(lp5036
g330
asV\u89EB
(lp5037
g791
asV\u966A
(lp5038
g3870
asV\u6170
(lp5039
g452
asV\u6E05
(lp5040
g2015
asV\u8F84
(lp5041
g656
asV\u7A0D
(lp5042
g1458
ag466
asV\u7011
(lp5043
g1230
ag935
asV\u9190
(lp5044
g18
asV\u7615
(lp5045
g359
ag243
asV\u9794
(lp5046
g277
asV\u8C19
(lp5047
g3896
asV\u649E
(lp5048
g1233
asV\u9E25
(lp5049
g584
asV\u6F2F
(lp5050
g993
ag1281
asV\u94BE
(lp5051
g359
asV\u8D43
(lp5052
g1991
asV\u4E45
(lp5053
g1767
asV\u8347
(lp5054
g2035
asV\u7BCC
(lp5055
g3153
asV\u9553
(lp5056
g522
asV\u83DC
(lp5057
g2257
asV\u50E6
(lp5058
g2185
asV\u95E8
(lp5059
g4347
asV\u4F6F
(lp5060
g2424
asV\u6CEE
(lp5061
g1103
asV\u8071
(lp5062
g226
asV\u517B
(lp5063
g1332
asV\u7EFA
(lp5064
g2995
asV\u6E83
(lp5065
g1101
ag2029
asV\u8902
(lp5066
g1004
asV\u8306
(lp5067
g417
asV\u9F0E
(lp5068
g4397
asV\u7693
(lp5069
g161
asV\u601C
(lp5070
g306
asV\u5BA1
(lp5071
g1355
asV\u7A20
(lp5072
g944
asV\u57A9
(lp5073
S'e'
asV\u69AD
(lp5074
g310
asV\u8230
(lp5075
g262
asV\u7FB9
(lp5076
g863
asV\u9E38
(lp5077
g1575
asV\u903C
(lp5078
S'bi'
p5079
asV\u573E
(lp5080
g189
asV\u8BC1
(lp5081
g2566
asV\u4EC3
(lp5082
g3294
asV\u6942
(lp5083
g662
ag1350
asV\u6346
(lp5084
g4725
asV\u4E58
(lp5085
g814
ag850
asV\u62DB
(lp5086
g575
asV\u8D5A
(lp5087
g1636
ag3702
asV\u7EE3
(lp5088
g256
asV\u70E7
(lp5089
g1458
asV\u5668
(lp5090
g12
asV\u956A
(lp5091
g1715
ag843
asV\u6270
(lp5092
g1656
asV\u86F3
(lp5093
g292
asV\u51FD
(lp5094
g501
asV\u707C
(lp5095
g536
asV\u94FF
(lp5096
g3997
asV\u6709
(lp5097
g2355
ag258
asV\u988C
(lp5098
g85
ag26
asV\u5192
(lp5099
g608
ag375
asV\u9494
(lp5100
g4347
asV\u6B96
(lp5101
g1907
ag922
asV\u679E
(lp5102
g1797
ag519
asV\u6C2F
(lp5103
g2560
asV\u7837
(lp5104
g2253
asV\u5EB8
(lp5105
g539
asV\u723B
(lp5106
g330
asV\u6CC4
(lp5107
g310
asV\u5351
(lp5108
g122
asV\u72D0
(lp5109
g18
asV\u5555
(lp5110
g220
asV\u615D
(lp5111
g940
ag633
asV\u80DC
(lp5112
g2124
ag850
asV\u53E6
(lp5113
g2083
asV\u96E8
(lp5114
g271
ag231
asV\u55EA
(lp5115
g507
asV\u6FEE
(lp5116
g362
asV\u917D
(lp5117
g174
asV\u77FE
(lp5118
g858
asV\u8206
(lp5119
g270
asV\u5310
(lp5120
g193
asV\u9012
(lp5121
g478
asV\u5514
(lp5122
S'n'
aS'n'
ag1697
ag1698
ag1076
asV\u839B
(lp5123
g1174
asV\u7B20
(lp5124
g91
asV\u7728
(lp5125
S'zha'
p5126
asV\u68AD
(lp5127
g629
asV\u62B1
(lp5128
g1230
asV\u64B5
(lp5129
g2902
asV\u5A36
(lp5130
g3490
asV\u7EB9
(lp5131
g433
ag2416
asV\u5C3A
(lp5132
S'che'
p5133
ag195
asV\u70BD
(lp5134
g758
asV\u4FC3
(lp5135
g1122
asV\u6842
(lp5136
g1642
asV\u86C9
(lp5137
g1012
asV\u644A
(lp5138
g1692
asV\u94D5
(lp5139
g2355
asV\u4F58
(lp5140
g654
asV\u8C5A
(lp5141
g94
asV\u865E
(lp5142
g270
asV\u71E7
(lp5143
g2009
asV\u5768
(lp5144
g1600
asV\u8BEB
(lp5145
g708
asV\u8DEF
(lp5146
g110
asV\u6574
(lp5147
g2869
asV\u6C05
(lp5148
g1105
asV\u8D84
(lp5149
g643
ag209
ag312
asV\u8788
(lp5150
g336
asV\u780D
(lp5151
g1127
asV\u80B2
(lp5152
S'yo'
p5153
ag231
asV\u9AB6
(lp5154
g489
asV\u9CBA
(lp5155
g794
asV\u51BC
(lp5156
g486
asV\u96BE
(lp5157
g3649
aS'nan'
p5158
asV\u6DC4
(lp5159
g516
asV\u584D
(lp5160
g814
asV\u5251
(lp5161
g262
asV\u73D0
(lp5162
g998
asV\u9753
(lp5163
g2128
ag649
asV\u5455
(lp5164
g2667
ag2200
asV\u75D4
(lp5165
g53
asV\u8FD8
(lp5166
g1326
ag799
asV\u605D
(lp5167
g631
asV\u54EA
(lp5168
g4733
ag3336
ag1048
aS'ne'
p5169
aS'nei'
p5170
asV\u8475
(lp5171
g1052
asV\u907D
(lp5172
g209
asV\u76FE
(lp5173
g93
asV\u6883
(lp5174
g4648
aS'ting'
p5175
asV\u6687
(lp5176
g243
asV\u5E0C
(lp5177
g32
asV\u5410
(lp5178
S'tu'
p5179
ag3396
asV\u829F
(lp5180
g855
asV\u5BA5
(lp5181
g258
asV\u96A7
(lp5182
g2009
asV\u8E2C
(lp5183
g53
asV\u8234
(lp5184
g717
asV\u79B9
(lp5185
g271
asV\u77BD
(lp5186
g597
asV\u963C
(lp5187
g441
asV\u8BC5
(lp5188
g3472
asV\u5CCB
(lp5189
g290
asV\u6ED7
(lp5190
g192
asV\u8D56
(lp5191
g87
asV\u62DF
(lp5192
g1493
asV\u5C60
(lp5193
g1279
asV\u9566
(lp5194
g2067
ag4296
asV\u936A
(lp5195
g24
asV\u4FED
(lp5196
g601
asV\u80F3
(lp5197
g326
ag964
ag85
asV\u59F9
(lp5198
g279
asV\u57FD
(lp5199
g3756
asV\u6D01
(lp5200
g172
asV\u6109
(lp5201
g270
asV\u7F0D
(lp5202
g838
asV\u7511
(lp5203
g518
asV\u9490
(lp5204
g855
ag1708
asV\u5792
(lp5205
g73
asV\u7315
(lp5206
g831
asV\u8919
(lp5207
g530
asV\u6B9A
(lp5208
g2675
asV\u5627
(lp5209
g868
asV\u4EAC
(lp5210
g247
asV\u6A2F
(lp5211
g4003
asV\u56BC
(lp5212
g1066
ag1067
ag302
asV\u723F
(lp5213
g202
asV\u7ECC
(lp5214
g1395
asV\u9053
(lp5215
g1081
asV\u5355
(lp5216
g1054
ag2675
ag1708
asV\u88D8
(lp5217
g802
asV\u55E6
(lp5218
g629
asV\u90E8
(lp5219
g126
asV\u53EA
(lp5220
g52
ag924
asV\u8F6D
(lp5221
S'e'
asV\u547B
(lp5222
g2253
asV\u527F
(lp5223
g1937
ag359
ag360
asV\u6787
(lp5224
g207
asV\u8406
(lp5225
g122
ag192
asV\u5510
(lp5226
g2235
asV\u9612
(lp5227
g3278
asV\u8F97
(lp5228
g4417
asV\u859B
(lp5229
g4114
asV\u7D20
(lp5230
g791
asV\u7B24
(lp5231
g1901
asV\u50A9
(lp5232
g2313
asV\u62B5
(lp5233
g489
asV\u8334
(lp5234
g4077
asV\u78B9
(lp5235
g625
asV\u503E
(lp5236
g2015
asV\u6446
(lp5237
g1113
asV\u9ECD
(lp5238
g356
asV\u784E
(lp5239
g1163
asV\u94D1
(lp5240
g2670
asV\u79E3
(lp5241
g375
asV\u5B64
(lp5242
g44
asV\u77E7
(lp5243
g1355
asV\u5168
(lp5244
g907
asV\u8DEB
(lp5245
g736
asV\u8BEF
(lp5246
g1176
asV\u6570
(lp5247
g356
ag660
ag666
asV\u81F3
(lp5248
g53
asV\u58F9
(lp5249
g9
asV\u7978
(lp5250
g334
asV\u95FB
(lp5251
g433
asV\u56FD
(lp5252
g448
asV\u8188
(lp5253
g85
asV\u9F8C
(lp5254
g1605
asV\u4F17
(lp5255
g3221
asV\u7EA2
(lp5256
g691
ag1587
asV\u6D2B
(lp5257
g2050
asV\u4FAC
(lp5258
g3645
asV\u9CB6
(lp5259
g810
asV\u753B
(lp5260
g876
asV\u9ABA
(lp5261
g3153
asV\u733F
(lp5262
g336
asV\u90BE
(lp5263
g773
asV\u6DC0
(lp5264
g142
asV\u8747
(lp5265
g1820
asV\u61C8
(lp5266
g310
asV\u7FCC
(lp5267
g148
asV\u9B4F
(lp5268
g452
asV\u54E6
(lp5269
S'e'
aS'o'
aS'o'
aS'wo'
p5270
ag1605
asV\u8E6D
(lp5271
S'ceng'
p5272
asV\u68EE
(lp5273
S'sen'
p5274
asV\u8471
(lp5275
g1797
asV\u66F2
(lp5276
g1267
ag3490
asV\u5F77
(lp5277
g1461
ag1870
asV\u9879
(lp5278
g315
asV\u557B
(lp5279
g758
asV\u7AFA
(lp5280
g784
asV\u537F
(lp5281
g2015
asV\u4E00
(lp5282
g9
asV\u6487
(lp5283
S'pie'
p5284
aS'pie'
p5285
asV\u810A
(lp5286
g11
ag205
asV\u9512
(lp5287
g474
asV\u5014
(lp5288
g302
aS'jue'
p5289
asV\u6A18
(lp5290
g2235
asV\u641C
(lp5291
g637
asV\u809F
(lp5292
g1605
asV\u5FA1
(lp5293
g231
asV\u9AA3
(lp5294
g972
asV\u59A5
(lp5295
g1039
asV\u94A7
(lp5296
g2099
asV\u53A9
(lp5297
g2185
asV\u7228
(lp5298
g1000
asV\u8C2C
(lp5299
g23
asV\u593A
(lp5300
S'duo'
p5301
asV\u75BD
(lp5302
g643
asV\u533E
(lp5303
g4847
asV\u8FC1
(lp5304
g176
asV\u89C5
(lp5305
g868
asV\u6746
(lp5306
g425
ag222
asV\u614A
(lp5307
g833
ag312
asV\u6CD7
(lp5308
g866
asV\u66DB
(lp5309
g658
asV\u60DF
(lp5310
g1037
asV\u835E
(lp5311
g582
asV\u7AE3
(lp5312
g470
asV\u916A
(lp5313
g1832
asV\u6670
(lp5314
g32
asV\u5BF9
(lp5315
g2067
asV\u7A78
(lp5316
g32
asV\u55FD
(lp5317
S'sou'
p5318
asV\u6905
(lp5319
g9
ag1911
asV\u8884
(lp5320
g4513
asV\u6309
(lp5321
g454
asV\u8288
(lp5322
g3014
asV\u9690
(lp5323
g2105
asV\u7115
(lp5324
g136
asV\u5A23
(lp5325
g478
asV\u5427
(lp5326
g388
ag3342
asV\u6E2B
(lp5327
g310
asV\u8BAE
(lp5328
g148
asV\u6233
(lp5329
g1434
asV\u5AB8
(lp5330
g297
asV\u62C8
(lp5331
g2951
asV\u9E4B
(lp5332
g2598
asV\u7CCC
(lp5333
g339
asV\u5751
(lp5334
g3997
asV\u76D0
(lp5335
g969
asV\u5155
(lp5336
g866
asV\u6B59
(lp5337
g5
ag32
asV\u655D
(lp5338
g192
asV\u7F61
(lp5339
g1061
asV\u9EE0
(lp5340
g243
asV\u5DE2
(lp5341
g1010
asV\u7965
(lp5342
g588
asV\u8D6D
(lp5343
g1992
asV\u567B
(lp5344
g1835
asV\u507F
(lp5345
g985
asV\u6B83
(lp5346
g4065
asV\u8C02
(lp5347
g1355
asV\u6587
(lp5348
g433
asV\u798F
(lp5349
g193
asV\u7F20
(lp5350
g1054
asV\u7924
(lp5351
S'ca'
p5352
asV\u52A9
(lp5353
g233
asV\u6CAD
(lp5354
g660
asV\u8D2C
(lp5355
g4847
asV\u953C
(lp5356
g637
asV\u6C42
(lp5357
g802
asV\u88C5
(lp5358
g2058
asV\u9CCD
(lp5359
g476
asV\u75E7
(lp5360
g704
asV\u8FEB
(lp5361
S'pai'
p5362
ag332
asV\u89EF
(lp5363
g53
asV\u6770
(lp5364
g172
asV\u54FD
(lp5365
g3203
asV\u6805
(lp5366
g855
ag1351
asV\u5492
(lp5367
g2324
asV\u841D
(lp5368
g187
asV\u9E21
(lp5369
g189
asV\u7CA2
(lp5370
g516
asV\u5527
(lp5371
g189
asV\u6F2B
(lp5372
g616
asV\u84B2
(lp5373
g362
asV\u5BB8
(lp5374
g112
asV\u6FC0
(lp5375
g189
asV\u5055
(lp5376
g590
asV\u71D4
(lp5377
g858
asV\u4ED6
(lp5378
g1204
asV\u6A59
(lp5379
g112
ag814
asV\u8BD8
(lp5380
g11
ag172
asV\u85DC
(lp5381
g146
asV\u7269
(lp5382
g1176
asV\u8671
(lp5383
g794
asV\u7EF6
(lp5384
g554
asV\u9A79
(lp5385
g643
asV\u577B
(lp5386
g71
ag489
asV\u78FA
(lp5387
g89
asV\u7483
(lp5388
g146
ag3164
asV\u6C93
(lp5389
g443
ag1281
asV\u4E14
(lp5390
g643
aS'qie'
p5391
asV\u5599
(lp5392
g1101
asV\u989B
(lp5393
g2097
asV\u5B9D
(lp5394
g933
asV\u9E9F
(lp5395
g28
asV\u6020
(lp5396
g1815
asV\u6C28
(lp5397
g3896
asV\u552E
(lp5398
g554
asV\u5B32
(lp5399
g1479
asV\u65B9
(lp5400
g132
asV\u8438
(lp5401
g270
asV\u7946
(lp5402
g834
asV\u89D1
(lp5403
g1267
ag3278
asV\u8FD5
(lp5404
g472
asV\u72D7
(lp5405
g787
asV\u5458
(lp5406
g336
ag1921
ag1160
asV\u7EDF
(lp5407
g1211
asV\u8966
(lp5408
g976
asV\u90EB
(lp5409
g207
asV\u53ED
(lp5410
g388
asV\u96EF
(lp5411
g433
asV\u5FF5
(lp5412
g60
asV\u82F7
(lp5413
g425
asV\u6478
(lp5414
S'mo'
p5415
ag282
asV\u6A7C
(lp5416
g336
asV\u9080
(lp5417
g2373
asV\u5382
(lp5418
g3896
ag1105
asV\u5986
(lp5419
g2058
asV\u9C88
(lp5420
g50
asV\u5F8A
(lp5421
g4822
ag4077
asV\u6F15
(lp5422
g577
asV\u8E94
(lp5423
g1054
asV\u5217
(lp5424
g614
asV\u9519
(lp5425
g4053
asV\u63A2
(lp5426
g1751
asV\u8725
(lp5427
g32
asV\u8D29
(lp5428
g1749
asV\u52AC
(lp5429
g898
asV\u6237
(lp5430
g1245
asV\u87BA
(lp5431
g187
asV\u8DBE
(lp5432
g924
asV\u5141
(lp5433
g1007
asV\u70C0
(lp5434
g1724
asV\u7CC8
(lp5435
g2553
asV\u804B
(lp5436
g450
asV\u62CC
(lp5437
g140
asV\u864F
(lp5438
g1362
asV\u4F55
(lp5439
g26
ag152
asV\u6ED4
(lp5440
g671
asV\u7559
(lp5441
g1513
asV\u94D8
(lp5442
g1519
asV\u57DA
(lp5443
g541
asV\u7B5D
(lp5444
g1487
asV\u5DDE
(lp5445
g1184
asV\u6765
(lp5446
g2580
asV\u86E4
(lp5447
g85
aS'ha'
p5448
asV\u6D69
(lp5449
g161
asV\u4FEA
(lp5450
g91
asV\u9971
(lp5451
g933
asV\u8579
(lp5452
S'weng'
p5453
asV\u7583
(lp5454
S'tuan'
p5455
asV\u5704
(lp5456
g271
asV\u618B
(lp5457
g891
asV\u840E
(lp5458
g144
ag806
asV\u6D93
(lp5459
g344
asV\u5499
(lp5460
g450
asV\u7518
(lp5461
g425
asV\u9F9F
(lp5462
g1463
ag2099
ag4098
asV\u6120
(lp5463
g1160
asV\u8BA7
(lp5464
g2449
asV\u542E
(lp5465
S'shun'
p5466
asV\u78B1
(lp5467
g601
asV\u5A32
(lp5468
g224
asV\u7EB5
(lp5469
g4917
asV\u8538
(lp5470
g215
asV\u90C1
(lp5471
g231
asV\u96C5
(lp5472
g1228
ag3001
asV\u5BC7
(lp5473
g1932
asV\u82CD
(lp5474
g3907
asV\u5B5C
(lp5475
g516
asV\u7FDF
(lp5476
g1498
ag2534
asV\u736C
(lp5477
g310
asV\u7F74
(lp5478
g207
asV\u6B7C
(lp5479
g117
asV\u5282
(lp5480
g302
asV\u7605
(lp5481
g2675
ag1639
ag675
asV\u5E8A
(lp5482
g1232
asV\u620D
(lp5483
g660
asV\u6811
(lp5484
g660
asV\u8F94
(lp5485
g295
asV\u5317
(lp5486
S'bei'
p5487
asV\u7096
(lp5488
g93
asV\u5F1F
(lp5489
g478
asV\u7C9E
(lp5490
g32
asV\u62A2
(lp5491
g1715
ag843
asV\u68A6
(lp5492
g3884
asV\u8C29
(lp5493
g277
ag616
asV\u6EAA
(lp5494
g32
asV\u772F
(lp5495
S'mi'
p5496
ag3014
asV\u94AE
(lp5497
g2699
asV\u86BA
(lp5498
S'ran'
p5499
asV\u9B47
(lp5500
g694
asV\u5C49
(lp5501
g1577
asV\u814B
(lp5502
g2043
asV\u69D0
(lp5503
g4822
asV\u8D53
(lp5504
g863
asV\u50D6
(lp5505
g32
asV\u7459
(lp5506
g4055
asV\u56DA
(lp5507
g802
asV\u6C69
(lp5508
g597
asV\u8DE8
(lp5509
g3899
asV\u516B
(lp5510
g388
ag2400
asV\u4EEA
(lp5511
g599
asV\u576F
(lp5512
g199
asV\u74EE
(lp5513
g5453
asV\u60F6
(lp5514
g89
asV\u4F7F
(lp5515
g1731
asV\u6CFE
(lp5516
g247
asV\u5200
(lp5517
g1414
asV\u9102
(lp5518
S'e'
asV\u5404
(lp5519
g1014
ag992
asV\u7887
(lp5520
g2871
asV\u5E08
(lp5521
g794
asV\u8912
(lp5522
g820
asV\u9097
(lp5523
g501
asV\u7618
(lp5524
g2132
asV\u9A9B
(lp5525
g1176
asV\u781C
(lp5526
g620
asV\u9C9F
(lp5527
g290
asV\u86A3
(lp5528
g691
asV\u4FA9
(lp5529
g2537
asV\u572E
(lp5530
g260
asV\u7BB1
(lp5531
g314
asV\u8638
(lp5532
g673
asV\u883C
(lp5533
g898
asV\u674E
(lp5534
g1412
asV\u8BD1
(lp5535
g148
asV\u4ED3
(lp5536
g3907
asV\u5658
(lp5537
g322
asV\u7CDF
(lp5538
S'zao'
p5539
asV\u8B66
(lp5540
g2020
asV\u51ED
(lp5541
g824
asV\u94EF
(lp5542
g1837
asV\u7A70
(lp5543
g1817
asV\u7C74
(lp5544
g1498
asV\u7301
(lp5545
g91
asV\u7F09
(lp5546
g189
ag528
asV\u9E88
(lp5547
g880
asV\u610D
(lp5548
g618
asV\u808C
(lp5549
g189
asV\u8C94
(lp5550
g207
asV\u7396
(lp5551
g1767
asV\u759A
(lp5552
g2185
asV\u7F9E
(lp5553
g896
asV\u6DAA
(lp5554
g193
asV\u50AC
(lp5555
g2504
asV\u83B6
(lp5556
g834
asV\u8FBE
(lp5557
g443
asV\u5341
(lp5558
g796
asV\u7EC8
(lp5559
g235
asV\u824B
(lp5560
g130
asV\u6CD4
(lp5561
g425
asV\u53D6
(lp5562
g3490
asV\u795D
(lp5563
g233
asV\u6361
(lp5564
g601
asV\u82E0
(lp5565
g3440
asV\u77EE
(lp5566
g2122
asV\u5E73
(lp5567
g824
asV\u63F6
(lp5568
g1519
asV\u65FA
(lp5569
g2290
asV\u5300
(lp5570
g1921
asV\u9002
(lp5571
g98
ag1523
asV\u5F08
(lp5572
g148
asV\u6320
(lp5573
g2206
asV\u4EA9
(lp5574
g3453
asV\u70AD
(lp5575
g1751
asV\u66B9
(lp5576
g834
asV\u4E3E
(lp5577
g429
asV\u57C3
(lp5578
g2693
asV\u94C5
(lp5579
g176
ag969
asV\u7A46
(lp5580
g852
asV\u9EC9
(lp5581
g1587
asV\u80CD
(lp5582
g97
asV\u9E5E
(lp5583
g3
asV\u8C6A
(lp5584
g160
asV\u50ED
(lp5585
g262
asV\u95EF
(lp5586
S'chuang'
p5587
asV\u5AF1
(lp5588
g4003
asV\u8BFB
(lp5589
g1616
ag681
asV\u697C
(lp5590
g2202
asV\u7405
(lp5591
g474
asV\u9F88
(lp5592
g1553
ag2326
asV\u600D
(lp5593
g441
asV\u6C15
(lp5594
g5284
asV\u8D94
(lp5595
g614
asV\u9619
(lp5596
g3461
ag20
asV\u8221
(lp5597
g1632
asV\u8425
(lp5598
g1820
asV\u8E29
(lp5599
g2256
asV\u732B
(lp5600
S'mao'
p5601
ag417
asV\u6CAA
(lp5602
g1245
asV\u51AC
(lp5603
g4357
asV\u752F
(lp5604
g1726
asV\u5BB0
(lp5605
g3003
asV\u7F33
(lp5606
g799
asV\u84BA
(lp5607
g11
asV\u5241
(lp5608
g860
asV\u73C0
(lp5609
g332
asV\u75C4
(lp5610
g1351
asV\u52D6
(lp5611
g2050
asV\u54DA
(lp5612
g838
asV\u785D
(lp5613
g227
asV\u83E0
(lp5614
g1096
asV\u85E4
(lp5615
g560
asV\u8FE8
(lp5616
g1815
asV\u536B
(lp5617
g452
asV\u906D
(lp5618
g5539
asV\u76EE
(lp5619
g852
asV\u9A71
(lp5620
g1267
asV\u5F73
(lp5621
g758
asV\u78F2
(lp5622
g898
asV\u62F6
(lp5623
g2065
ag2846
asV\u8679
(lp5624
g1587
ag587
asV\u887D
(lp5625
g1417
asV\u810E
(lp5626
g4023
asV\u6893
(lp5627
g1347
asV\u9697
(lp5628
g1052
ag806
asV\u5199
(lp5629
S'xie'
p5630
ag310
asV\u9C9B
(lp5631
g789
asV\u9A9F
(lp5632
g1708
asV\u6420
(lp5633
g666
asV\u6224
(lp5634
g324
asV\u8038
(lp5635
g2768
asV\u614E
(lp5636
g1584
asV\u8DD1
(lp5637
g2653
aS'pao'
p5638
asV\u8BD5
(lp5639
g1523
asV\u76D7
(lp5640
g1081
asV\u9556
(lp5641
g56
asV\u7ADF
(lp5642
g2128
asV\u8D66
(lp5643
g5
asV\u94EB
(lp5644
g1275
ag330
asV\u57ED
(lp5645
g1815
asV\u5DF1
(lp5646
g205
asV\u7A74
(lp5647
g249
asV\u6078
(lp5648
g4849
asV\u5782
(lp5649
g100
asV\u9888
(lp5650
g3203
ag2020
asV\u670D
(lp5651
g193
ag62
asV\u868C
(lp5652
g1197
ag379
asV\u7596
(lp5653
g171
asV\u9119
(lp5654
g570
asV\u5A1F
(lp5655
g344
asV\u8521
(lp5656
g2257
asV\u67A2
(lp5657
g445
asV\u4E27
(lp5658
S'sang'
p5659
aS'sang'
p5660
asV\u6DA6
(lp5661
S'run'
p5662
asV\u6BAA
(lp5663
g148
asV\u91AE
(lp5664
g1067
asV\u83BA
(lp5665
g66
asV\u5541
(lp5666
g575
ag1184
asV\u5345
(lp5667
g4023
asV\u72C4
(lp5668
g1498
asV\u9E47
(lp5669
g1753
asV\u5949
(lp5670
g775
asV\u824F
(lp5671
g1983
asV\u6CD0
(lp5672
g48
asV\u55D6
(lp5673
g637
asV\u9EDC
(lp5674
g1395
asV\u84E0
(lp5675
g146
asV\u82E4
(lp5676
g5285
asV\u88E8
(lp5677
g192
ag207
asV\u526F
(lp5678
g62
asV\u71EE
(lp5679
g310
asV\u65F6
(lp5680
g796
asV\u8179
(lp5681
g62
asV\u8F7D
(lp5682
g3003
ag2703
asV\u9602
(lp5683
g26
asV\u658B
(lp5684
g1806
asV\u638F
(lp5685
g671
asV\u7118
(lp5686
g1081
ag671
asV\u7F1C
(lp5687
g1398
asV\u81A3
(lp5688
g53
asV\u6324
(lp5689
g205
asV\u502E
(lp5690
g4389
asV\u7CB1
(lp5691
g510
asV\u8138
(lp5692
g275
asV\u6EBD
(lp5693
g4313
asV\u94C1
(lp5694
g4440
asV\u77D7
(lp5695
g1395
asV\u8662
(lp5696
g448
asV\u95EB
(lp5697
g969
asV\u56ED
(lp5698
g336
asV\u776C
(lp5699
g2256
asV\u8DFB
(lp5700
g189
asV\u4EFD
(lp5701
g169
asV\u6F7C
(lp5702
g562
asV\u8BFF
(lp5703
g806
asV\u7809
(lp5704
g3274
ag106
asV\u9988
(lp5705
g2029
asV\u6C11
(lp5706
g3440
asV\u4E92
(lp5707
g1245
asV\u5D1B
(lp5708
g302
asV\u4F27
(lp5709
g3907
aS'chen'
p5710
asV\u6CA6
(lp5711
g1966
asV\u752B
(lp5712
g917
asV\u90AE
(lp5713
g320
asV\u5BB4
(lp5714
g174
asV\u6D3B
(lp5715
g651
asV\u9143
(lp5716
g1012
asV\u834F
(lp5717
g1157
asV\u6BD4
(lp5718
g570
asV\u6869
(lp5719
g2058
asV\u536F
(lp5720
g2398
asV\u5973
(lp5721
S'nv'
p5722
asV\u7EF2
(lp5723
g64
asV\u9A75
(lp5724
S'zang'
p5725
asV\u5600
(lp5726
g104
ag1498
asV\u9502
(lp5727
g1412
asV\u5A08
(lp5728
g348
asV\u830E
(lp5729
g247
asV\u4E10
(lp5730
g324
asV\u9497
(lp5731
g1133
asV\u5D9D
(lp5732
g1862
asV\u989F
(lp5733
S'man'
p5734
asV\u6620
(lp5735
g67
asV\u6A28
(lp5736
g32
asV\u532E
(lp5737
g2029
asV\u8238
(lp5738
g1014
asV\u52C3
(lp5739
g398
asV\u634E
(lp5740
g1458
ag466
asV\u8FD1
(lp5741
g902
asV\u6D52
(lp5742
g1955
ag2553
asV\u9756
(lp5743
g2128
asV\u7EDB
(lp5744
g587
asV\u915A
(lp5745
g79
asV\u62E3
(lp5746
g601
asV\u8F66
(lp5747
S'che'
p5748
ag643
asV\u90EF
(lp5749
g7
asV\u5FF1
(lp5750
g112
asV\u7701
(lp5751
g1438
ag1023
asV\u5582
(lp5752
g452
asV\u9A88
(lp5753
g929
asV\u598A
(lp5754
g1417
asV\u848C
(lp5755
g2202
asV\u8E90
(lp5756
g614
asV\u5417
(lp5757
S'ma'
p5758
ag557
ag2723
asV\u5E1B
(lp5759
g398
asV\u8721
(lp5760
g2591
ag1351
asV\u762B
(lp5761
g1692
asV\u54AC
(lp5762
g218
asV\u7A33
(lp5763
g686
asV\u81BA
(lp5764
g66
asV\u8BBE
(lp5765
g5
asV\u5145
(lp5766
g1756
asV\u4F51
(lp5767
g258
asV\u9CDC
(lp5768
g1642
asV\u5BDE
(lp5769
g375
asV\u6761
(lp5770
g1901
asV\u80E4
(lp5771
g419
asV\u4FE6
(lp5772
g944
asV\u566B
(lp5773
g9
ag148
asV\u956D
(lp5774
g763
asV\u9975
(lp5775
g462
asV\u678B
(lp5776
g132
asV\u4F10
(lp5777
g1868
asV\u6B93
(lp5778
g3196
asV\u8C12
(lp5779
g2043
asV\u9F9B
(lp5780
g733
asV\u6124
(lp5781
g169
asV\u952C
(lp5782
g7
asV\u522E
(lp5783
g97
asV\u7EB1
(lp5784
g704
asV\u62B9
(lp5785
g556
aS'mo'
p5786
ag375
asV\u8338
(lp5787
g592
asV\u6CBD
(lp5788
g44
asV\u8D3C
(lp5789
S'zei'
p5790
asV\u96C1
(lp5791
g174
asV\u90C5
(lp5792
g53
asV\u84CD
(lp5793
g794
asV\u624E
(lp5794
g2065
ag1350
ag484
asV\u88D5
(lp5795
g231
asV\u79DF
(lp5796
g1896
asV\u63E3
(lp5797
g1778
aS'chuai'
p5798
ag1745
asV\u8E66
(lp5799
g379
asV\u97EB
(lp5800
g1160
asV\u54ED
(lp5801
g138
asV\u6D7C
(lp5802
g1789
asV\u7601
(lp5803
g1419
asV\u5482
(lp5804
g2065
asV\u5E86
(lp5805
g580
asV\u6E11
(lp5806
g749
ag3689
asV\u8F90
(lp5807
g193
asV\u7696
(lp5808
g750
asV\u5F1B
(lp5809
g71
asV\u591F
(lp5810
g760
asV\u8025
(lp5811
g4665
asV\u712F
(lp5812
g1937
ag715
asV\u92AE
(lp5813
g348
asV\u7B33
(lp5814
g522
asV\u9CB2
(lp5815
g2278
asV\u86B6
(lp5816
g237
asV\u80BA
(lp5817
g948
asV\u693F
(lp5818
g3635
asV\u5A49
(lp5819
g750
asV\u65CC
(lp5820
g247
asV\u69D4
(lp5821
g1016
asV\u7259
(lp5822
g1091
asV\u50DA
(lp5823
g498
asV\u6661
(lp5824
g83
asV\u87E0
(lp5825
g202
asV\u8BE8
(lp5826
g2319
asV\u576B
(lp5827
g142
asV\u72EE
(lp5828
g794
asV\u9E71
(lp5829
g1245
asV\u5B73
(lp5830
g516
asV\u9875
(lp5831
g2043
asV\u4F7B
(lp5832
g415
asV\u60FA
(lp5833
g3467
asV\u5800
(lp5834
g138
asV\u5408
(lp5835
g1014
ag26
asV\u6E8F
(lp5836
g2235
asV\u9A97
(lp5837
g4072
asV\u5D99
(lp5838
g28
asV\u909B
(lp5839
g736
asV\u539D
(lp5840
g4053
asV\u4FA5
(lp5841
g359
ag360
ag330
asV\u6E24
(lp5842
g398
asV\u7BAD
(lp5843
g262
asV\u5D2E
(lp5844
g699
asV\u77B5
(lp5845
g28
asV\u9634
(lp5846
g167
asV\u4F3A
(lp5847
g4174
ag866
asV\u52C7
(lp5848
g1702
asV\u8BCD
(lp5849
g515
asV\u6D4E
(lp5850
g205
ag391
asV\u70DB
(lp5851
g784
asV\u525C
(lp5852
g1705
asV\u76DF
(lp5853
g129
ag180
asV\u955E
(lp5854
S'zu'
p5855
asV\u6CE3
(lp5856
g12
asV\u62E7
(lp5857
g1726
aS'ning'
p5858
ag245
asV\u9EEF
(lp5859
g454
asV\u7070
(lp5860
g3042
asV\u94F3
(lp5861
g2208
asV\u627C
(lp5862
S'e'
asV\u7901
(lp5863
g789
asV\u9880
(lp5864
g476
asV\u7F05
(lp5865
g749
asV\u9488
(lp5866
g150
asV\u6715
(lp5867
g4703
asV\u7F9A
(lp5868
g1012
asV\u561F
(lp5869
g410
asV\u8921
(lp5870
g544
asV\u67AA
(lp5871
g1715
asV\u7433
(lp5872
g28
asV\u603B
(lp5873
S'zong'
p5874
asV\u5941
(lp5875
g306
asV\u7EC4
(lp5876
g3472
asV\u5549
(lp5877
g28
asV\u9CD8
(lp5878
g618
asV\u586B
(lp5879
g1129
asV\u9171
(lp5880
g587
asV\u5473
(lp5881
g452
asV\u73F2
(lp5882
g3042
ag4030
asV\u837D
(lp5883
g1785
asV\u5F04
(lp5884
S'long'
p5885
aS'nong'
p5886
asV\u7387
(lp5887
g2560
ag3071
asV\u9006
(lp5888
g940
asV\u960A
(lp5889
g34
asV\u8C0E
(lp5890
g2751
asV\u6593
(lp5891
g549
asV\u8212
(lp5892
g445
asV\u5C99
(lp5893
g342
asV\u919B
(lp5894
g907
asV\u529D
(lp5895
g624
asV\u731C
(lp5896
S'cai'
p5897
asV\u6920
(lp5898
g833
asV\u8DA3
(lp5899
g3278
asV\u4EA5
(lp5900
g1808
asV\u6F24
(lp5901
g2218
asV\u7AAD
(lp5902
g209
asV\u70B1
(lp5903
g2072
asV\u6CB9
(lp5904
g320
asV\u8D38
(lp5905
g608
asV\u4E3A
(lp5906
g1037
ag452
asV\u62BD
(lp5907
S'chou'
p5908
asV\u833C
(lp5909
g562
asV\u94C9
(lp5910
g625
asV\u4FCF
(lp5911
g873
asV\u6252
(lp5912
g388
ag393
ag3111
asV\u5D58
(lp5913
g592
asV\u9E5A
(lp5914
g515
asV\u535C
(lp5915
g2229
ag934
asV\u4F64
(lp5916
S'wa'
p5917
asV\u95F3
(lp5918
g1587
asV\u56F5
(lp5919
g1966
asV\u8BF7
(lp5920
g1070
asV\u6D78
(lp5921
g902
asV\u81FB
(lp5922
g150
asV\u7801
(lp5923
g557
asV\u9980
(lp5924
g270
asV\u9F84
(lp5925
g1012
asV\u7409
(lp5926
g1513
asV\u6615
(lp5927
g684
asV\u5B17
(lp5928
g1708
asV\u571F
(lp5929
g5179
asV\u749E
(lp5930
g362
asV\u8821
(lp5931
g146
ag1412
asV\u60A6
(lp5932
g273
asV\u7F2F
(lp5933
g264
ag518
asV\u9CAE
(lp5934
g1012
asV\u51B0
(lp5935
g2508
asV\u7533
(lp5936
g2253
asV\u57B4
(lp5937
g4055
asV\u6B37
(lp5938
g32
asV\u8EBA
(lp5939
g4906
asV\u79C0
(lp5940
g256
asV\u5E45
(lp5941
g193
asV\u75C8
(lp5942
g539
asV\u67D4
(lp5943
g3391
asV\u725D
(lp5944
g460
asV\u54DE
(lp5945
S'mou'
p5946
asV\u6861
(lp5947
g1655
asV\u8FE4
(lp5948
g599
ag1911
asV\u6469
(lp5949
g556
ag282
asV\u9A6D
(lp5950
g231
asV\u72F2
(lp5951
g2733
asV\u9675
(lp5952
g1012
asV\u8C79
(lp5953
g1230
asV\u827D
(lp5954
g789
asV\u5C04
(lp5955
g5
asV\u5608
(lp5956
g577
asV\u6C8F
(lp5957
g528
asV\u8112
(lp5958
g3014
asV\u9897
(lp5959
g1033
asV\u5F99
(lp5960
g2602
asV\u949F
(lp5961
g235
asV\u6C24
(lp5962
g167
asV\u6628
(lp5963
g696
asV\u75B5
(lp5964
g4464
asV\u6FB9
(lp5965
g675
ag7
asV\u85D5
(lp5966
g2667
asV\u505C
(lp5967
g1174
asV\u975E
(lp5968
g1860
asV\u60E7
(lp5969
g209
asV\u8366
(lp5970
g993
asV\u9AEB
(lp5971
g1901
asV\u786C
(lp5972
g67
asV\u53F1
(lp5973
g758
asV\u96F3
(lp5974
g91
asV\u55F5
(lp5975
S'tong'
p5976
asV\u82FB
(lp5977
g193
asV\u607C
(lp5978
g4055
asV\u84FF
(lp5979
S'xu'
p5980
asV\u9A80
(lp5981
g1815
ag2072
asV\u5982
(lp5982
g976
asV\u5386
(lp5983
g91
asV\u7709
(lp5984
g804
asV\u9688
(lp5985
g144
asV\u558A
(lp5986
S'han'
p5987
asV\u690D
(lp5988
g922
asV\u6311
(lp5989
g415
ag526
asV\u9F19
(lp5990
g207
asV\u521B
(lp5991
g3584
ag3145
asV\u541F
(lp5992
g2326
asV\u8D25
(lp5993
g3137
asV\u8729
(lp5994
g1901
asV\u7633
(lp5995
g5908
asV\u54B4
(lp5996
g3042
asV\u6837
(lp5997
g1904
asV\u8BB6
(lp5998
g1683
asV\u8DBA
(lp5999
g496
asV\u643F
(lp6000
g85
asV\u9E43
(lp6001
g344
asV\u9047
(lp6002
g231
asV\u76C8
(lp6003
g1820
asV\u62D0
(lp6004
S'guai'
p6005
asV\u9ED8
(lp6006
g375
asV\u90DC
(lp6007
g3953
asV\u6769
(lp6008
g558
asV\u996D
(lp6009
g1749
asV\u5C6F
(lp6010
g94
ag4167
asV\u7FEE
(lp6011
g26
asV\u8F79
(lp6012
g91
asV\u817D
(lp6013
S'wa'
p6014
asV\u5708
(lp6015
g344
ag1945
ag3093
asV\u6B8B
(lp6016
S'can'
p6017
asV\u8012
(lp6018
g73
asV\u9997
(lp6019
g1052
asV\u5E99
(lp6020
g22
asV\u7F18
(lp6021
g336
asV\u6B20
(lp6022
g833
asV\u8FA3
(lp6023
g2591
asV\u6728
(lp6024
g852
asV\u5E2E
(lp6025
g3182
asV\u9534
(lp6026
g1975
asV\u9AC1
(lp6027
g1033
asV\u5FC3
(lp6028
g684
asV\u9CC5
(lp6029
g4098
asV\u51C7
(lp6030
g2192
asV\u96C9
(lp6031
g53
asV\u6E4E
(lp6032
g749
asV\u82D1
(lp6033
g1581
asV\u6052
(lp6034
g1309
asV\u5F58
(lp6035
g53
asV\u515C
(lp6036
g215
asV\u8862
(lp6037
g898
asV\u97F3
(lp6038
g167
asV\u7574
(lp6039
g944
asV\u6F78
(lp6040
g855
asV\u85FF
(lp6041
g334
asV\u4E8E
(lp6042
g270
asV\u6211
(lp6043
S'wo'
p6044
asV\u7A96
(lp6045
g1067
asV\u901D
(lp6046
g1523
asV\u68A2
(lp6047
g3756
ag1458
asV\u8C25
(lp6048
g1523
asV\u8629
(lp6049
g858
asV\u7B2B
(lp6050
g1347
asV\u7D2F
(lp6051
g763
ag73
ag764
asV\u653F
(lp6052
g2566
asV\u5C45
(lp6053
g643
asV\u69CC
(lp6054
g100
asV\u8D4F
(lp6055
g114
asV\u63D0
(lp6056
g104
ag1846
asV\u8753
(lp6057
g270
asV\u5AD6
(lp6058
g3157
asV\u91DC
(lp6059
g917
asV\u56DE
(lp6060
g4077
asV\u6A61
(lp6061
g315
asV\u8BE0
(lp6062
g907
asV\u8DE4
(lp6063
g789
asV\u5D6F
(lp6064
g1864
asV\u7EEE
(lp6065
g190
asV\u5773
(lp6066
g342
asV\u6CFA
(lp6067
g993
ag399
asV\u66FE
(lp6068
S'ceng'
p6069
ag264
asV\u5A04
(lp6070
g2202
asV\u7687
(lp6071
g89
asV\u9506
(lp6072
g3953
asV\u4E0C
(lp6073
g189
asV\u8712
(lp6074
g969
asV\u5999
(lp6075
g22
asV\u7818
(lp6076
g93
asV\u949B
(lp6077
g512
asV\u86A7
(lp6078
g708
asV\u6028
(lp6079
g1581
asV\u9E2C
(lp6080
g50
asV\u592E
(lp6081
g4065
asV\u75B1
(lp6082
g2408
asV\u863C
(lp6083
g831
asV\u7F42
(lp6084
g66
asV\u91C9
(lp6085
g258
asV\u7ED7
(lp6086
g1308
asV\u5858
(lp6087
g2235
asV\u565C
(lp6088
S'lu'
p6089
asV\u915E
(lp6090
g512
asV\u68E3
(lp6091
g478
asV\u836A
(lp6092
g2733
asV\u5FED
(lp6093
g401
asV\u9AEF
(lp6094
g5499
asV\u7470
(lp6095
g1463
asV\u53F5
(lp6096
g3504
asV\u5F82
(lp6097
S'cu'
p6098
asV\u9A84
(lp6099
g789
asV\u7109
(lp6100
g365
asV\u9088
(lp6101
g299
asV\u541B
(lp6102
g2099
asV\u8D21
(lp6103
g692
asV\u63AA
(lp6104
g4053
asV\u97B2
(lp6105
g887
asV\u8BBA
(lp6106
g1966
aS'lun'
p6107
asV\u623F
(lp6108
g2395
asV\u9647
(lp6109
g1538
asV\u5149
(lp6110
g16
asV\u70C8
(lp6111
g614
asV\u4F4D
(lp6112
g452
asV\u64D0
(lp6113
g136
asV\u62D4
(lp6114
g2400
asV\u98D8
(lp6115
g966
asV\u6B65
(lp6116
g126
asV\u80E8
(lp6117
g14
asV\u9571
(lp6118
g148
asV\u877D
(lp6119
g3635
asV\u5899
(lp6120
g4003
asV\u6B24
(lp6121
g270
asV\u7EAD
(lp6122
g1921
asV\u9F2C
(lp6123
g258
asV\u9530
(lp6124
g130
asV\u5632
(lp6125
g1010
ag575
asV\u9AC5
(lp6126
g2202
asV\u684E
(lp6127
g53
asV\u84D1
(lp6128
g629
asV\u6652
(lp6129
S'shai'
p6130
asV\u82D5
(lp6131
g3020
ag1901
asV\u5958
(lp6132
g1681
aS'zhuang'
p6133
asV\u75DB
(lp6134
g4849
asV\u575C
(lp6135
g91
asV\u8FF7
(lp6136
g831
asV\u6978
(lp6137
g4098
asV\u85FB
(lp6138
g2047
asV\u677C
(lp6139
g233
asV\u5486
(lp6140
g2653
asV\u6E0D
(lp6141
g1289
asV\u6215
(lp6142
g1715
asV\u5F17
(lp6143
g193
asV\u551B
(lp6144
g558
asV\u8C21
(lp6145
g791
asV\u6EA2
(lp6146
g148
asV\u8029
(lp6147
g2045
asV\u7D2B
(lp6148
g1347
asV\u653B
(lp6149
g691
asV\u80BE
(lp6150
g1584
asV\u5C41
(lp6151
g828
asV\u8D4B
(lp6152
g62
asV\u4E4D
(lp6153
g1351
asV\u8153
(lp6154
g639
asV\u6C61
(lp6155
g1195
asV\u6A65
(lp6156
g773
asV\u8BE4
(lp6157
g2566
asV\u6069
(lp6158
g4449
asV\u5D6B
(lp6159
g516
asV\u9E6D
(lp6160
g110
asV\u5173
(lp6161
g995
asV\u76F2
(lp6162
g1474
asV\u6CF6
(lp6163
g249
asV\u867D
(lp6164
g1785
asV\u7A83
(lp6165
g312
asV\u7487
(lp6166
g3705
asV\u9706
(lp6167
g1174
asV\u5208
(lp6168
g148
asV\u688F
(lp6169
g699
asV\u6293
(lp6170
g3121
asV\u5B99
(lp6171
g2324
asV\u559D
(lp6172
g1371
ag152
asV\u6E20
(lp6173
g898
asV\u71B5
(lp6174
g505
asV\u4F36
(lp6175
g1012
asV\u65BD
(lp6176
g794
asV\u843C
(lp6177
S'e'
asV\u54C7
(lp6178
g224
aS'wa'
p6179
asV\u4ECB
(lp6180
g708
asV\u714A
(lp6181
g1357
asV\u87D1
(lp6182
g573
asV\u7CD7
(lp6183
S'qiu'
p6184
asV\u76DB
(lp6185
g814
ag850
asV\u545C
(lp6186
g1195
asV\u70DF
(lp6187
g365
ag167
asV\u4E60
(lp6188
g2113
asV\u8D62
(lp6189
g1820
asV\u7F01
(lp6190
g516
asV\u5D82
(lp6191
g1546
asV\u7905
(lp6192
g4296
asV\u9884
(lp6193
g231
asV\u5786
(lp6194
g50
asV\u8C8C
(lp6195
g608
asV\u6115
(lp6196
S'e'
asV\u561B
(lp6197
g2723
asV\u799A
(lp6198
g536
asV\u951D
(lp6199
g2380
asV\u501F
(lp6200
g708
asV\u8925
(lp6201
g4313
asV\u5CAC
(lp6202
g359
asV\u603F
(lp6203
g148
asV\u7EC0
(lp6204
g1271
asV\u5349
(lp6205
g1101
asV\u72C8
(lp6206
g530
asV\u8E4B
(lp6207
g1281
asV\u6CCC
(lp6208
g192
ag868
asV\u5FD6
(lp6209
S'cun'
p6210
asV\u9AD8
(lp6211
g1016
asV\u59DA
(lp6212
g330
asV\u94DC
(lp6213
g562
asV\u88E4
(lp6214
g423
asV\u6369
(lp6215
g614
asV\u7BEE
(lp6216
g549
asV\u9175
(lp6217
g1067
asV\u5F00
(lp6218
g2479
asV\u5904
(lp6219
g1171
ag1395
asV\u9606
(lp6220
g474
ag3685
asV\u5308
(lp6221
g1989
asV\u900A
(lp6222
g503
asV\u549D
(lp6223
g292
asV\u751C
(lp6224
g1129
asV\u4EA1
(lp6225
g2134
ag1076
asV\u6F20
(lp6226
g375
asV\u8BA3
(lp6227
g62
asV\u6924
(lp6228
g187
asV\u6328
(lp6229
g2693
ag457
asV\u76B1
(lp6230
g2324
asV\u9730
(lp6231
g1565
ag36
asV\u5432
(lp6232
g2105
asV\u4E36
(lp6233
g1093
asV\u853C
(lp6234
g2122
asV\u86D1
(lp6235
g24
asV\u6452
(lp6236
g3521
asV\u5B58
(lp6237
S'cun'
p6238
asV\u77DB
(lp6239
g417
asV\u555C
(lp6240
g1745
ag1470
asV\u4F60
(lp6241
g1493
asV\u8C62
(lp6242
g136
asV\u65E7
(lp6243
g2185
asV\u806A
(lp6244
g1797
asV\u5CED
(lp6245
g873
asV\u56F1
(lp6246
g1797
asV\u50F5
(lp6247
g304
asV\u8DF7
(lp6248
g1312
asV\u9F80
(lp6249
g1569
asV\u5C82
(lp6250
g190
asV\u9984
(lp6251
g4030
asV\u5686
(lp6252
S'hao'
p6253
asV\u6C0D
(lp6254
g898
asV\u6015
(lp6255
S'pa'
p6256
asV\u789A
(lp6257
g530
asV\u7F2B
(lp6258
g1155
asV\u94B2
(lp6259
g1487
asV\u613F
(lp6260
g1581
asV\u82BE
(lp6261
g948
ag193
asV\u9B43
(lp6262
g2400
asV\u9547
(lp6263
g4703
asV\u73C8
(lp6264
g522
asV\u6DCC
(lp6265
g4906
asV\u67D0
(lp6266
S'mou'
p6267
asV\u61D4
(lp6268
g4597
asV\u5ED6
(lp6269
g1124
asV\u6865
(lp6270
g582
asV\u6269
(lp6271
g98
asV\u5373
(lp6272
g11
asV\u9075
(lp6273
g1549
asV\u8A79
(lp6274
g1365
asV\u68FA
(lp6275
g995
asV\u62FE
(lp6276
g796
asV\u6000
(lp6277
g4822
asV\u8785
(lp6278
g32
asV\u568F
(lp6279
g1577
asV\u9991
(lp6280
g711
asV\u8116
(lp6281
g398
asV\u6599
(lp6282
g1124
asV\u871A
(lp6283
g1860
ag1304
asV\u8D1E
(lp6284
g150
asV\u77A5
(lp6285
g5284
asV\u5624
(lp6286
g66
asV\u80AB
(lp6287
g4167
asV\u86AF
(lp6288
g4098
asV\u652E
(lp6289
g2267
asV\u6B32
(lp6290
g231
asV\u4FB5
(lp6291
g579
asV\u7136
(lp6292
g5499
asV\u55B9
(lp6293
g1052
asV\u773A
(lp6294
g1909
asV\u5BBD
(lp6295
g990
asV\u76CF
(lp6296
g4417
asV\u6458
(lp6297
g1806
asV\u8BDD
(lp6298
g876
asV\u4EDF
(lp6299
g176
asV\u63ED
(lp6300
g171
asV\u9176
(lp6301
g804
asV\u75F9
(lp6302
g192
asV\u5478
(lp6303
g770
asV\u8403
(lp6304
g1419
asV\u6382
(lp6305
g2176
asV\u8A07
(lp6306
g3051
asV\u6986
(lp6307
g270
asV\u900B
(lp6308
g83
asV\u530D
(lp6309
g362
asV\u960F
(lp6310
S'e'
ag365
asV\u5F15
(lp6311
g2105
asV\u6217
(lp6312
g1715
ag3306
asV\u53A2
(lp6313
g314
asV\u9CA8
(lp6314
g704
asV\u5FAA
(lp6315
g290
asV\u832D
(lp6316
g789
asV\u62AC
(lp6317
g2072
asV\u68B0
(lp6318
g310
asV\u6EB4
(lp6319
g256
asV\u5237
(lp6320
g2392
aS'shua'
p6321
asV\u9539
(lp6322
g1312
asV\u89C6
(lp6323
g1523
asV\u734D
(lp6324
g2128
asV\u7F55
(lp6325
g5987
asV\u67DA
(lp6326
g320
ag258
asV\u6DDE
(lp6327
g2192
asV\u79E6
(lp6328
g507
asV\u5D69
(lp6329
g2192
asV\u606B
(lp6330
g14
ag5976
asV\u666F
(lp6331
g2020
asV\u88F0
(lp6332
g1612
asV\u51F6
(lp6333
g1989
asV\u94F8
(lp6334
g233
asV\u57FA
(lp6335
g189
asV\u5DFE
(lp6336
g1717
asV\u6100
(lp6337
g2993
asV\u8C89
(lp6338
g160
ag26
ag375
asV\u9891
(lp6339
g1979
asV\u7F14
(lp6340
g478
asV\u8016
(lp6341
S'chao'
p6342
asV\u6499
(lp6343
S'zun'
p6344
asV\u9E2A
(lp6345
g44
asV\u87AF
(lp6346
g226
asV\u8DB3
(lp6347
g5855
asV\u4EB5
(lp6348
g310
asV\u65C3
(lp6349
g1365
asV\u8D48
(lp6350
g4703
asV\u4FDF
(lp6351
g476
ag866
asV\u90E1
(lp6352
g470
asV\u55E3
(lp6353
g866
asV\u62ED
(lp6354
g1523
asV\u68F1
(lp6355
S'leng'
p6356
ag2861
ag1012
asV\u4F74
(lp6357
g2338
ag688
asV\u5578
(lp6358
g905
asV\u7AFD
(lp6359
g270
asV\u8B07
(lp6360
g601
asV\u6886
(lp6361
g3182
asV\u520D
(lp6362
g42
asV\u970F
(lp6363
g1860
asV\u748E
(lp6364
g66
asV\u5811
(lp6365
g833
asV\u7A92
(lp6366
g53
asV\u5E15
(lp6367
g6256
asV\u52A2
(lp6368
g1603
asV\u822D
(lp6369
g570
asV\u63AC
(lp6370
g643
asV\u8E35
(lp6371
g3220
asV\u75B8
(lp6372
g2980
ag1639
asV\u6041
(lp6373
g3048
ag2343
asV\u88C6
(lp6374
g405
asV\u6C49
(lp6375
g1334
asV\u724D
(lp6376
g681
asV\u53CC
(lp6377
g4215
asV\u94CE
(lp6378
g5301
asV\u59D0
(lp6379
g4345
asV\u6CDE
(lp6380
g245
asV\u9563
(lp6381
g1124
asV\u7EEA
(lp6382
g2050
asV\u676F
(lp6383
g122
asV\u95F8
(lp6384
g484
asV\u56FA
(lp6385
g699
asV\u8585
(lp6386
g6253
asV\u8F89
(lp6387
g3042
asV\u918D
(lp6388
g1846
asV\u548F
(lp6389
g1702
asV\u5E93
(lp6390
g423
asV\u851A
(lp6391
g452
ag231
asV\u5220
(lp6392
g855
asV\u9122
(lp6393
g365
asV\u75A5
(lp6394
g708
asV\u82AB
(lp6395
g969
ag336
asV\u84AF
(lp6396
S'kuai'
p6397
asV\u753A
(lp6398
g3294
ag4648
asV\u8E48
(lp6399
g1080
asV\u574E
(lp6400
g1127
asV\u7ED3
(lp6401
g171
ag172
asV\u876E
(lp6402
g62
asV\u79FD
(lp6403
g1101
asV\u6B86
(lp6404
g1815
asV\u4F09
(lp6405
g1353
asV\u778E
(lp6406
g4896
asV\u889C
(lp6407
g6014
asV\u6C1F
(lp6408
g193
asV\u51A2
(lp6409
g3220
asV\u94A4
(lp6410
g118
asV\u7827
(lp6411
g150
asV\u5BA6
(lp6412
g136
asV\u60AC
(lp6413
g3705
asV\u8D35
(lp6414
g1642
asV\u9739
(lp6415
g199
asV\u5C3F
(lp6416
g940
ag983
ag1785
asV\u81C2
(lp6417
g3944
ag192
asV\u6545
(lp6418
g699
asV\u8BC6
(lp6419
g796
ag53
asV\u7B51
(lp6420
g784
ag233
asV\u63D6
(lp6421
g9
asV\u6FDE
(lp6422
g192
asV\u5361
(lp6423
g1026
aS'qia'
p6424
asV\u5565
(lp6425
g1367
asV\u7BE6
(lp6426
g192
asV\u5F69
(lp6427
g2256
asV\u626B
(lp6428
g4131
ag3756
asV\u80EC
(lp6429
g286
asV\u53F6
(lp6430
g590
ag2043
asV\u5FFE
(lp6431
S'kai'
p6432
asV\u538B
(lp6433
g1228
ag1683
asV\u558F
(lp6434
g2388
aS're'
p6435
asV\u9A91
(lp6436
g476
asV\u9C95
(lp6437
g1575
asV\u8E1E
(lp6438
g209
asV\u5320
(lp6439
g587
asV\u9022
(lp6440
g3824
asV\u5524
(lp6441
g136
asV\u7EA9
(lp6442
g2244
asV\u83AB
(lp6443
g375
asV\u85AF
(lp6444
g356
asV\u6832
(lp6445
g3017
asV\u7236
(lp6446
g917
ag62
asV\u8340
(lp6447
g290
asV\u67C3
(lp6448
g1012
asV\u914C
(lp6449
g536
asV\u564E
(lp6450
g1518
asV\u86D9
(lp6451
g224
asV\u7360
(lp6452
g498
asV\u94E5
(lp6453
g4332
asV\u9EE9
(lp6454
g681
asV\u7F68
(lp6455
g694
asV\u60ED
(lp6456
g6017
asV\u866E
(lp6457
g205
asV\u8872
(lp6458
g721
asV\u6CF5
(lp6459
g379
asV\u76F9
(lp6460
g2144
asV\u9E7E
(lp6461
g1864
asV\u8703
(lp6462
g1584
asV\u4E09
(lp6463
g1595
asV\u500D
(lp6464
g530
asV\u950F
(lp6465
g601
ag262
asV\u768E
(lp6466
g359
ag360
asV\u5A11
(lp6467
g629
asV\u9F13
(lp6468
g597
asV\u5C15
(lp6469
g328
asV\u61AC
(lp6470
g2020
asV\u8C35
(lp6471
g1365
asV\u6241
(lp6472
g4847
ag251
asV\u80C2
(lp6473
g1584
asV\u6445
(lp6474
g445
asV\u51CC
(lp6475
g1012
asV\u96CE
(lp6476
g643
asV\u7A51
(lp6477
g1837
asV\u5BD0
(lp6478
g1115
asV\u98D2
(lp6479
g4023
asV\u62D6
(lp6480
g492
asV\u6EDE
(lp6481
g53
asV\u5261
(lp6482
g1708
ag694
asV\u9967
(lp6483
g2235
ag1163
asV\u7AE6
(lp6484
g2768
asV\u81EC
(lp6485
g108
asV\u8BF0
(lp6486
g3953
asV\u7B7B
(lp6487
g3060
asV\u54FA
(lp6488
g934
asV\u6400
(lp6489
g350
asV\u8385
(lp6490
g91
asV\u6808
(lp6491
g673
asV\u548B
(lp6492
S'za'
p6493
ag717
ag1350
ag1351
asV\u978D
(lp6494
g3896
asV\u760C
(lp6495
g2591
asV\u5893
(lp6496
g852
asV\u7A14
(lp6497
g1157
asV\u831A
(lp6498
g419
asV\u4E1C
(lp6499
g4357
asV\u75A1
(lp6500
g2424
asV\u5420
(lp6501
g948
asV\u5224
(lp6502
g1103
asV\u82AF
(lp6503
g684
ag1402
asV\u9CBB
(lp6504
g516
asV\u5FBD
(lp6505
g3042
asV\u793E
(lp6506
g5
asV\u8244
(lp6507
g1458
asV\u6EC7
(lp6508
g2176
asV\u964C
(lp6509
g375
asV\u5F52
(lp6510
g1463
asV\u8FDD
(lp6511
g1037
asV\u816E
(lp6512
g1835
asV\u6DF1
(lp6513
g2253
asV\u8F72
(lp6514
g1033
ag1842
asV\u6BF5
(lp6515
g1595
asV\u9576
(lp6516
g314
asV\u71F9
(lp6517
g486
asV\u5E7C
(lp6518
g258
asV\u8003
(lp6519
g3017
asV\u6B8A
(lp6520
g445
asV\u8098
(lp6521
g4089
asV\u6C1B
(lp6522
g79
asV\u8E9C
(lp6523
S'zuan'
p6524
asV\u6A1F
(lp6525
g573
asV\u94A0
(lp6526
g721
asV\u7023
(lp6527
g310
asV\u57A2
(lp6528
g760
asV\u5BAA
(lp6529
g36
asV\u8D31
(lp6530
g262
asV\u9139
(lp6531
g1787
asV\u70B8
(lp6532
g484
ag1351
asV\u5C3B
(lp6533
S'kao'
p6534
asV\u9F3D
(lp6535
g802
ag694
asV\u6345
(lp6536
g1211
asV\u8DC6
(lp6537
g2072
asV\u8BCA
(lp6538
g1398
asV\u91CE
(lp6539
g81
asV\u5AD4
(lp6540
g1979
asV\u65D6
(lp6541
g1911
asV\u4F5D
(lp6542
g887
asV\u5561
(lp6543
g1860
asV\u9063
(lp6544
g1918
asV\u77E2
(lp6545
g1731
asV\u9E67
(lp6546
g741
asV\u7BEA
(lp6547
g71
asV\u626F
(lp6548
g5133
asV\u90F8
(lp6549
g2675
asV\u7C7B
(lp6550
g764
asV\u9EFC
(lp6551
g917
asV\u7A7F
(lp6552
g1085
asV\u6500
(lp6553
g3240
asV\u558B
(lp6554
g408
ag484
asV\u968D
(lp6555
g89
asV\u9C91
(lp6556
g1463
asV\u5993
(lp6557
g391
asV\u7B14
(lp6558
g570
asV\u5520
(lp6559
g165
ag1832
asV\u9622
(lp6560
g1176
asV\u6E32
(lp6561
g625
asV\u7436
(lp6562
S'pa'
p6563
asV\u783E
(lp6564
g91
asV\u73CF
(lp6565
g302
asV\u504E
(lp6566
g144
asV\u9B54
(lp6567
g282
asV\u80D9
(lp6568
g441
asV\u6F5C
(lp6569
g118
asV\u94E1
(lp6570
g484
asV\u5FE7
(lp6571
g604
asV\u7968
(lp6572
g3315
asV\u6CF1
(lp6573
g4065
asV\u8E72
(lp6574
g6238
ag4296
asV\u70F9
(lp6575
g2101
asV\u5178
(lp6576
g1093
asV\u7EFD
(lp6577
g673
asV\u5F7C
(lp6578
g570
asV\u987E
(lp6579
g699
asV\u6682
(lp6580
g1295
asV\u6C86
(lp6581
g1379
asV\u950B
(lp6582
g620
asV\u708E
(lp6583
g969
asV\u5C11
(lp6584
S'shao'
p6585
ag466
asV\u6717
(lp6586
S'lang'
p6587
asV\u8198
(lp6588
g56
asV\u6D1B
(lp6589
g993
asV\u8F9C
(lp6590
g44
asV\u7F27
(lp6591
g763
asV\u99A8
(lp6592
g684
asV\u5AAA
(lp6593
g4513
asV\u8C31
(lp6594
g367
asV\u6BB4
(lp6595
g584
asV\u9E3D
(lp6596
g964
asV\u7FBC
(lp6597
g5028
asV\u6441
(lp6598
S'en'
p6599
asV\u6849
(lp6600
g3896
asV\u764D
(lp6601
g532
asV\u90CE
(lp6602
g474
ag3685
asV\u8757
(lp6603
g89
asV\u8D5B
(lp6604
g1836
asV\u62DA
(lp6605
g1103
ag2090
asV\u4E5D
(lp6606
g1767
asV\u9163
(lp6607
g237
asV\u5265
(lp6608
g820
ag1096
asV\u656B
(lp6609
g359
ag360
asV\u4EF2
(lp6610
g3221
asV\u8BF4
(lp6611
g3495
aS'shuo'
p6612
ag273
asV\u52FA
(lp6613
g56
ag3020
asV\u6600
(lp6614
g1921
asV\u6004
(lp6615
g2200
asV\u9995
(lp6616
g4134
ag2267
asV\u7814
(lp6617
g969
ag174
asV\u811A
(lp6618
g359
ag360
ag302
asV\u6D9D
(lp6619
g1832
asV\u9522
(lp6620
g699
asV\u7BA9
(lp6621
g187
asV\u80AF
(lp6622
g1553
asV\u6D32
(lp6623
g1184
asV\u94B7
(lp6624
g3504
asV\u7736
(lp6625
g2244
asV\u9EBB
(lp6626
g556
ag5758
asV\u7B3E
(lp6627
g2282
asV\u4F46
(lp6628
g675
asV\u8A48
(lp6629
g91
asV\u534E
(lp6630
g3274
ag875
ag876
asV\u6258
(lp6631
g492
asV\u8DDD
(lp6632
g209
asV\u6C5C
(lp6633
g866
asV\u65ED
(lp6634
g2050
asV\u836E
(lp6635
g2324
asV\u4E70
(lp6636
g2661
asV\u9776
(lp6637
S'ba'
p6638
asV\u8C07
(lp6639
g2009
asV\u960B
(lp6640
g427
asV\u900F
(lp6641
S'tou'
p6642
asV\u738E
(lp6643
g3294
asV\u5F11
(lp6644
g1523
asV\u5915
(lp6645
g32
asV\u8298
(lp6646
g192
ag207
asV\u7C27
(lp6647
g89
asV\u9AA8
(lp6648
g44
aS'gu'
p6649
ag597
asV\u59AA
(lp6650
g231
asV\u64AC
(lp6651
g873
asV\u72B8
(lp6652
g557
asV\u5E3B
(lp6653
g717
asV\u7CBC
(lp6654
g28
asV\u6B49
(lp6655
g833
asV\u89CA
(lp6656
g391
asV\u54CC
(lp6657
g1542
asV\u7F51
(lp6658
g154
asV\u8457
(lp6659
g233
ag536
asV\u5761
(lp6660
g399
asV\u75E2
(lp6661
g91
asV\u5165
(lp6662
g4313
asV\u7FE6
(lp6663
g601
asV\u5B69
(lp6664
g1326
asV\u84EC
(lp6665
g1985
asV\u606F
(lp6666
g32
asV\u88F4
(lp6667
g3870
asV\u7477
(lp6668
g1078
asV\u51FA
(lp6669
g2136
asV\u8681
(lp6670
g1911
asV\u6700
(lp6671
g2606
asV\u8A89
(lp6672
g231
asV\u578B
(lp6673
g1163
asV\u948D
(lp6674
g5179
asV\u5B93
(lp6675
g868
asV\u8616
(lp6676
g108
asV\u9E26
(lp6677
g1228
asV\u87AB
(lp6678
g1523
asV\u622E
(lp6679
g110
asV\u8BB3
(lp6680
g1101
asV\u6C32
(lp6681
S'yun'
p6682
asV\u5CBD
(lp6683
g4357
asV\u6DC7
(lp6684
g476
asV\u954C
(lp6685
g344
asV\u9F50
(lp6686
g391
ag476
ag12
asV\u7BD3
(lp6687
g3023
asV\u9954
(lp6688
g539
asV\u6D5C
(lp6689
g3182
asV\u53E3
(lp6690
S'kou'
p6691
asV\u7164
(lp6692
g804
asV\u5DE7
(lp6693
g2993
asV\u826E
(lp6694
S'gen'
p6695
ag1120
asV\u4F70
(lp6696
g1113
asV\u68F5
(lp6697
g1033
asV\u9676
(lp6698
g220
ag330
asV\u5378
(lp6699
g310
asV\u9A7E
(lp6700
g2214
asV\u8303
(lp6701
g1749
asV\u6482
(lp6702
S'liao'
p6703
ag498
ag1124
asV\u6E86
(lp6704
g2050
asV\u540D
(lp6705
g180
asV\u5E11
(lp6706
g4906
asV\u9B13
(lp6707
g808
asV\u7C92
(lp6708
g91
asV\u5815
(lp6709
g860
ag3042
asV\u8398
(lp6710
g2253
asV\u691F
(lp6711
g681
asV\u97A0
(lp6712
g643
asV\u7D27
(lp6713
g711
asV\u5EA6
(lp6714
g3057
ag5301
asV\u8E31
(lp6715
g5301
asV\u69B4
(lp6716
g1513
asV\u5537
(lp6717
g5153
asV\u6641
(lp6718
g1010
asV\u55CC
(lp6719
g1078
ag148
asV\u5FD0
(lp6720
g1306
asV\u7855
(lp6721
g666
asV\u59D4
(lp6722
g144
ag806
asV\u60DA
(lp6723
g1724
asV\u895F
(lp6724
g1717
asV\u74E2
(lp6725
g3157
asV\u5065
(lp6726
g262
asV\u7EE6
(lp6727
g671
asV\u8FF0
(lp6728
g660
asV\u8981
(lp6729
g2373
ag3
asV\u6800
(lp6730
g52
asV\u8F85
(lp6731
g917
asV\u5E8F
(lp6732
g2050
asV\u9191
(lp6733
g2553
asV\u5820
(lp6734
g120
asV\u5428
(lp6735
g4296
asV\u88AB
(lp6736
g530
asV\u972A
(lp6737
g2326
asV\u8EAF
(lp6738
g1267
asV\u6D2E
(lp6739
g220
asV\u6332
(lp6740
g1645
ag704
ag629
asV\u9AB7
(lp6741
g138
asV\u90BB
(lp6742
g28
asV\u7F3A
(lp6743
g3461
asV\u753E
(lp6744
g1241
asV\u8840
(lp6745
g5630
ag3862
asV\u8E44
(lp6746
g1846
asV\u62C7
(lp6747
g3453
asV\u78CB
(lp6748
g396
asV\u7ECF
(lp6749
g247
ag2128
asV\u9050
(lp6750
g243
asV\u5352
(lp6751
g1122
ag5855
asV\u9654
(lp6752
g1050
asV\u83DD
(lp6753
g2400
asV\u95E9
(lp6754
g1202
asV\u9976
(lp6755
g1655
asV\u8C03
(lp6756
g1275
ag1901
asV\u6B82
(lp6757
g6098
asV\u6A17
(lp6758
g2136
asV\u8C98
(lp6759
g375
asV\u601B
(lp6760
g443
asV\u829C
(lp6761
g1076
asV\u661F
(lp6762
g3467
asV\u98A0
(lp6763
g2176
asV\u5BA2
(lp6764
g178
asV\u94A8
(lp6765
g1195
asV\u6AAC
(lp6766
g129
asV\u8131
(lp6767
g492
asV\u66B4
(lp6768
g1230
ag935
asV\u563F
(lp6769
g955
ag956
ag375
asV\u8BC2
(lp6770
g597
asV\u4EC4
(lp6771
g266
asV\u81C6
(lp6772
g148
asV\u6549
(lp6773
g3014
asV\u87CA
(lp6774
g417
asV\u5ACC
(lp6775
g1753
asV\u56D4
(lp6776
g4133
asV\u686B
(lp6777
g629
asV\u80F0
(lp6778
g599
asV\u86F4
(lp6779
g476
asV\u7A77
(lp6780
g736
asV\u55FE
(lp6781
g431
asV\u8881
(lp6782
g336
asV\u8E85
(lp6783
g784
asV\u8489
(lp6784
g2029
asV\u9091
(lp6785
g148
asV\u7110
(lp6786
g1176
asV\u8816
(lp6787
g334
asV\u6C99
(lp6788
g704
ag1367
asV\u78A1
(lp6789
g2665
asV\u7EA5
(lp6790
g964
ag26
asV\u9026
(lp6791
g1412
asV\u74A9
(lp6792
g898
asV\u962A
(lp6793
g2470
asV\u6C2E
(lp6794
g675
asV\u8548
(lp6795
g503
asV\u79CB
(lp6796
g4098
asV\u5C4E
(lp6797
g1731
asV\u9150
(lp6798
g425
asV\u7960
(lp6799
g515
asV\u9EE5
(lp6800
g1559
asV\u94E9
(lp6801
g704
asV\u8272
(lp6802
g1837
aS'shai'
p6803
asV\u9876
(lp6804
g4397
asV\u8307
(lp6805
g2400
asV\u9513
(lp6806
g507
asV\u7292
(lp6807
g719
asV\u4E9A
(lp6808
g1683
asV\u839C
(lp6809
g320
asV\u671F
(lp6810
g189
ag528
asV\u4F2F
(lp6811
g1113
ag398
asV\u8031
(lp6812
g375
asV\u5B37
(lp6813
g556
asV\u6841
(lp6814
g1309
asV\u4FC4
(lp6815
S'e'
asV\u80C6
(lp6816
g1639
asV\u86CA
(lp6817
g597
asV\u5BCC
(lp6818
g62
asV\u9CCE
(lp6819
g2981
asV\u57D4
(lp6820
g126
ag367
asV\u6EDA
(lp6821
g64
asV\u64DE
(lp6822
g431
ag5318
asV\u70E6
(lp6823
g858
asV\u696B
(lp6824
g11
asV\u8BEC
(lp6825
g1195
asV\u7B77
(lp6826
g2537
asV\u58F6
(lp6827
g18
asV\u5EFA
(lp6828
g262
asV\u777F
(lp6829
g383
asV\u8D85
(lp6830
g1937
asV\u998D
(lp6831
g282
asV\u780C
(lp6832
g12
ag312
asV\u5693
(lp6833
g1132
ag1098
asV\u4E18
(lp6834
g4098
asV\u619D
(lp6835
g2067
asV\u871E
(lp6836
g476
asV\u7BA1
(lp6837
g1467
asV\u5A20
(lp6838
g2253
asV\u5C24
(lp6839
g320
asV\u77A9
(lp6840
g880
asV\u952A
(lp6841
g1021
asV\u51BD
(lp6842
g614
asV\u94BF
(lp6843
g142
ag1129
asV\u7ACB
(lp6844
g91
asV\u8FD9
(lp6845
g741
aS'zhei'
p6846
asV\u6E58
(lp6847
g314
asV\u50E7
(lp6848
S'seng'
p6849
asV\u97E9
(lp6850
g501
asV\u69ED
(lp6851
g528
asV\u8F6E
(lp6852
g1966
asV\u5E78
(lp6853
g2035
asV\u6982
(lp6854
g324
asV\u590D
(lp6855
g62
asV\u7F8E
(lp6856
g1789
asV\u6817
(lp6857
g91
asV\u621B
(lp6858
g631
asV\u809C
(lp6859
g592
asV\u9AA0
(lp6860
g56
ag3315
asV\u9CA4
(lp6861
g1412
asV\u53A6
(lp6862
g1367
ag1956
asV\u8331
(lp6863
g773
asV\u9F39
(lp6864
g694
asV\u7EB8
(lp6865
g924
asV\u523B
(lp6866
g178
asV\u70BC
(lp6867
g3196
asV\u89C2
(lp6868
g995
ag156
asV\u6D45
(lp6869
g117
ag1918
asV\u6749
(lp6870
g704
ag855
asV\u52D0
(lp6871
g130
asV\u54D4
(lp6872
g192
asV\u8857
(lp6873
g171
asV\u6BD6
(lp6874
g192
asV\u4F59
(lp6875
g270
asV\u67DE
(lp6876
g1351
ag441
asV\u9E63
(lp6877
g117
asV\u5769
(lp6878
g425
asV\u75EA
(lp6879
g136
asV\u4FEE
(lp6880
g896
asV\u7877
(lp6881
g601
asV\u4F83
(lp6882
g1127
asV\u8C85
(lp6883
g896
asV\u6D04
(lp6884
g4077
asV\u6708
(lp6885
g273
asV\u5B8B
(lp6886
g468
asV\u988D
(lp6887
g412
asV\u5793
(lp6888
g1050
asV\u9495
(lp6889
g5722
asV\u4F18
(lp6890
g604
asV\u8C1A
(lp6891
g174
asV\u609D
(lp6892
g2719
ag1412
asV\u7CA5
(lp6893
g231
ag1184
asV\u5D24
(lp6894
g494
asV\u5728
(lp6895
g2703
asV\u8BAB
(lp6896
g12
asV\u87B3
(lp6897
g2235
asV\u5EB9
(lp6898
g1039
asV\u763E
(lp6899
g2105
asV\u8D44
(lp6900
g516
asV\u8748
(lp6901
g541
asV\u9554
(lp6902
g102
asV\u6F58
(lp6903
g3240
asV\u80DD
(lp6904
g52
asV\u9AE1
(lp6905
g2278
asV\u7B60
(lp6906
g2099
ag1921
asV\u96E9
(lp6907
g270
asV\u7768
(lp6908
g940
asV\u62F1
(lp6909
g1890
asV\u9A76
(lp6910
g1731
asV\u70FD
(lp6911
g620
asV\u517C
(lp6912
g117
asV\u580D
(lp6913
g3396
asV\u5211
(lp6914
g1163
asV\u9713
(lp6915
g627
asV\u7092
(lp6916
g4242
asV\u5415
(lp6917
g182
asV\u8F98
(lp6918
g110
asV\u631B
(lp6919
g348
asV\u819C
(lp6920
g282
asV\u7F23
(lp6921
g117
asV\u54AA
(lp6922
g5496
asV\u8231
(lp6923
g3907
asV\u63B0
(lp6924
S'bai'
p6925
ag2627
asV\u5937
(lp6926
g599
asV\u9E39
(lp6927
g97
asV\u7FB8
(lp6928
g763
asV\u533B
(lp6929
g9
asV\u553F
(lp6930
g1724
asV\u88C2
(lp6931
g1286
ag614
asV\u84CA
(lp6932
S'weng'
p6933
asV\u9ECE
(lp6934
g146
asV\u7455
(lp6935
g243
asV\u55D4
(lp6936
g2172
asV\u4E59
(lp6937
g1911
asV\u835B
(lp6938
g1655
asV\u5C65
(lp6939
g182
asV\u5669
(lp6940
S'e'
asV\u6D6F
(lp6941
g1076
asV\u83F0
(lp6942
g44
asV\u6773
(lp6943
g218
asV\u7977
(lp6944
g1080
asV\u757F
(lp6945
g189
asV\u56FE
(lp6946
g1279
asV\u8D81
(lp6947
g1569
asV\u7410
(lp6948
g239
asV\u679D
(lp6949
g52
asV\u811E
(lp6950
g2683
asV\u9F22
(lp6951
g1535
asV\u9526
(lp6952
g711
asV\u5028
(lp6953
g209
asV\u59B9
(lp6954
g1115
asV\u94BB
(lp6955
g6524
ag3702
asV\u7B3A
(lp6956
g117
asV\u9E4C
(lp6957
g3896
asV\u594E
(lp6958
g1052
asV\u4ED7
(lp6959
g1546
asV\u65F1
(lp6960
g1334
asV\u77FD
(lp6961
g32
asV\u567C
(lp6962
g199
asV\u917E
(lp6963
g1734
ag794
asV\u8803
(lp6964
g4389
asV\u638A
(lp6965
S'pou'
p6966
aS'pou'
p6967
asV\u5511
(lp6968
g441
asV\u7792
(lp6969
g277
asV\u5315
(lp6970
g570
asV\u6E17
(lp6971
g1584
asV\u641B
(lp6972
g117
asV\u869C
(lp6973
g1091
asV\u621F
(lp6974
g205
asV\u9CA0
(lp6975
g3203
asV\u7823
(lp6976
g1600
asV\u9AA4
(lp6977
g2324
asV\u64B0
(lp6978
g1636
asV\u8335
(lp6979
g167
asV\u5E37
(lp6980
g1037
asV\u543B
(lp6981
g686
asV\u523F
(lp6982
g1642
asV\u6D41
(lp6983
g1513
asV\u8FC2
(lp6984
g4255
asV\u83CA
(lp6985
g1083
asV\u54D0
(lp6986
g284
asV\u6DD6
(lp6987
g58
asV\u845B
(lp6988
g85
ag1014
asV\u825F
(lp6989
g1756
asV\u5B65
(lp6990
g4601
asV\u9667
(lp6991
g108
asV\u75E6
(lp6992
g1176
asV\u84F0
(lp6993
g2602
asV\u6073
(lp6994
g1553
asV\u82F4
(lp6995
g643
asV\u5BFA
(lp6996
g866
asV\u727F
(lp6997
g699
asV\u8089
(lp6998
S'rou'
p6999
asV\u6108
(lp7000
g231
asV\u7F0C
(lp7001
g292
asV\u5B8F
(lp7002
g1587
asV\u8C16
(lp7003
g1357
asV\u669D
(lp7004
g180
asV\u9E22
(lp7005
g439
asV\u7AA5
(lp7006
g2719
asV\u4EAD
(lp7007
g1174
asV\u8BAF
(lp7008
g503
asV\u81B3
(lp7009
g1708
asV\u8D40
(lp7010
g516
asV\u8148
(lp7011
g247
asV\u9550
(lp7012
g883
ag161
asV\u4FD7
(lp7013
S'su'
p7014
asV\u88D9
(lp7015
g937
asV\u675C
(lp7016
g3057
asV\u59E3
(lp7017
g789
asV\u7168
(lp7018
g144
asV\u4F6C
(lp7019
g2670
asV\u886E
(lp7020
g64
asV\u5978
(lp7021
g117
asV\u9A7A
(lp7022
g1787
asV\u577C
(lp7023
g1622
asV\u8707
(lp7024
g655
ag656
asV\u628A
(lp7025
g6638
ag2975
asV\u9B0F
(lp7026
g213
asV\u788E
(lp7027
g2009
asV\u5411
(lp7028
g315
asV\u631F
(lp7029
g522
ag590
asV\u54A6
(lp7030
g599
asV\u52AA
(lp7031
g2206
ag286
asV\u8431
(lp7032
g1357
asV\u65B0
(lp7033
g684
asV\u8235
(lp7034
g860
ag1600
asV\u63B4
(lp7035
g1374
ag448
asV\u963D
(lp7036
g142
ag969
asV\u533F
(lp7037
g940
asV\u6C41
(lp7038
g52
asV\u82CA
(lp7039
S'e'
asV\u5FCC
(lp7040
g391
asV\u98CE
(lp7041
g620
asV\u96D2
(lp7042
g993
asV\u53D4
(lp7043
g445
asV\u6CD6
(lp7044
g2398
asV\u835F
(lp7045
g1101
asV\u5C61
(lp7046
g182
asV\u7EE2
(lp7047
g1945
asV\u74E6
(lp7048
g5917
ag6014
asV\u8F81
(lp7049
g907
asV\u8389
(lp7050
g91
asV\u6208
(lp7051
g964
asV\u5E8B
(lp7052
g1179
asV\u7C0C
(lp7053
g791
asV\u9791
(lp7054
g443
asV\u7610
(lp7055
g271
asV\u5293
(lp7056
g148
asV\u891A
(lp7057
g1171
ag880
asV\u7FA1
(lp7058
g36
asV\u5824
(lp7059
g104
asV\u73A9
(lp7060
g288
asV\u5228
(lp7061
g1230
ag2653
asV\u8EAB
(lp7062
g2253
asV\u82B3
(lp7063
g132
asV\u9CB7
(lp7064
g1386
asV\u7F36
(lp7065
g3384
asV\u5BB9
(lp7066
g592
asV\u793A
(lp7067
g1523
asV\u55BD
(lp7068
g2202
aS'lou'
p7069
asV\u733E
(lp7070
g875
asV\u8E40
(lp7071
g408
asV\u8844
(lp7072
g2224
asV\u7ECB
(lp7073
g193
asV\u9650
(lp7074
g36
asV\u8BD9
(lp7075
g3042
asV\u6A58
(lp7076
g1083
asV\u5AE3
(lp7077
g365
asV\u54E7
(lp7078
g297
asV\u67F1
(lp7079
g233
asV\u8572
(lp7080
g476
asV\u61F5
(lp7081
g130
asV\u997A
(lp7082
g359
ag360
asV\u547C
(lp7083
g1724
asV\u4F01
(lp7084
g190
asV\u6D82
(lp7085
g1279
asV\u849C
(lp7086
g4087
asV\u7A23
(lp7087
g1759
asV\u98A4
(lp7088
g5028
ag673
asV\u57A6
(lp7089
g1553
asV\u4E2B
(lp7090
g1228
asV\u8D2D
(lp7091
g760
asV\u8731
(lp7092
g207
asV\u60B4
(lp7093
g1419
asV\u563B
(lp7094
g32
asV\u4EC0
(lp7095
g1583
ag796
asV\u87C6
(lp7096
g5758
asV\u6349
(lp7097
g715
asV\u81CA
(lp7098
g1155
ag3756
asV\u7751
(lp7099
g601
asV\u63DE
(lp7100
g1530
asV\u5965
(lp7101
g342
asV\u6E6B
(lp7102
g359
ag360
ag4098
asV\u86F0
(lp7103
g656
asV\u6273
(lp7104
g532
ag3240
asV\u80F4
(lp7105
g14
asV\u767B
(lp7106
g534
asV\u94FC
(lp7107
g2580
asV\u707F
(lp7108
g836
asV\u8E81
(lp7109
g163
asV\u8885
(lp7110
g1479
asV\u6308
(lp7111
g312
asV\u5F8B
(lp7112
g2560
asV\u9C8D
(lp7113
g1230
asV\u9095
(lp7114
g539
asV\u821E
(lp7115
g472
asV\u7EA1
(lp7116
g4255
asV\u5F20
(lp7117
g573
asV\u78A5
(lp7118
g4847
asV\u5924
(lp7119
g2326
asV\u8FAB
(lp7120
g401
asV\u83B3
(lp7121
g796
ag1523
asV\u783A
(lp7122
g91
asV\u54BD
(lp7123
g365
ag174
ag2043
asV\u8944
(lp7124
g314
asV\u5452
(lp7125
S'm'
asV\u84DD
(lp7126
g1167
ag549
asV\u7AF9
(lp7127
g784
asV\u987A
(lp7128
g3096
asV\u557C
(lp7129
g1846
asV\u4E01
(lp7130
g3294
ag1487
asV\u6C82
(lp7131
g599
asV\u9F0B
(lp7132
g336
asV\u6D17
(lp7133
g2602
ag486
asV\u671B
(lp7134
g2290
asV\u859C
(lp7135
g192
asV\u611F
(lp7136
g222
asV\u9FA0
(lp7137
g273
asV\u5CA2
(lp7138
g1842
asV\u4F2B
(lp7139
g233
asV\u8C2D
(lp7140
g7
asV\u67B0
(lp7141
g824
asV\u8035
(lp7142
g3294
asV\u7BB8
(lp7143
g233
asV\u573B
(lp7144
g476
ag2326
asV\u75BC
(lp7145
g560
asV\u513F
(lp7146
g1575
asV\u6845
(lp7147
g1037
asV\u86C6
(lp7148
g1267
asV\u6249
(lp7149
g1860
asV\u7C4D
(lp7150
g11
asV\u94D2
(lp7151
g462
asV\u68DA
(lp7152
g1985
asV\u5E61
(lp7153
g1947
asV\u5865
(lp7154
g85
asV\u9567
(lp7155
g549
asV\u5269
(lp7156
g850
asV\u8DEC
(lp7157
g1464
asV\u81F4
(lp7158
g53
asV\u7D77
(lp7159
g922
asV\u5EF6
(lp7160
g969
asV\u95FC
(lp7161
g1281
asV\u52FE
(lp7162
g887
ag760
asV\u9785
(lp7163
g4065
ag1904
asV\u620C
(lp7164
S'qu'
p7165
ag106
asV\u8F95
(lp7166
g336
asV\u6E14
(lp7167
g270
asV\u7599
(lp7168
g964
asV\u7B9D
(lp7169
g118
asV\u5A1C
(lp7170
g721
ag2313
asV\u67A5
(lp7171
g91
asV\u6DA9
(lp7172
g1837
asV\u9CB3
(lp7173
g34
asV\u5FB5
(lp7174
g1487
ag924
asV\u82B7
(lp7175
g924
asV\u673A
(lp7176
g189
asV\u6D3E
(lp7177
g393
ag1542
asV\u9644
(lp7178
g62
asV\u60CB
(lp7179
g750
asV\u6CD3
(lp7180
g1587
asV\u87E5
(lp7181
g89
asV\u6664
(lp7182
g1176
asV\u6C68
(lp7183
g868
asV\u73ED
(lp7184
g532
asV\u5E74
(lp7185
g810
asV\u6BFD
(lp7186
g262
asV\u800B
(lp7187
g408
asV\u7F8A
(lp7188
g2424
asV\u8C13
(lp7189
g452
asV\u6B92
(lp7190
g1007
asV\u9A9C
(lp7191
g342
asV\u80A0
(lp7192
g985
asV\u86A4
(lp7193
g2047
asV\u4FAA
(lp7194
g962
asV\u72AC
(lp7195
g2990
asV\u78B0
(lp7196
S'peng'
p7197
asV\u8539
(lp7198
g275
asV\u64B8
(lp7199
g6089
asV\u4E3F
(lp7200
g5285
asV\u634D
(lp7201
g1334
asV\u8BD2
(lp7202
g599
asV\u4ED4
(lp7203
g3003
ag516
ag1347
asV\u5B5D
(lp7204
g905
asV\u8463
(lp7205
g46
asV\u706B
(lp7206
g1028
asV\u766F
(lp7207
g898
asV\u7C73
(lp7208
g3014
asV\u6E7F
(lp7209
g794
asV\u5583
(lp7210
g3649
asV\u9685
(lp7211
g270
asV\u7704
(lp7212
g749
asV\u5B87
(lp7213
g271
asV\u828D
(lp7214
g3020
asV\u6910
(lp7215
g643
asV\u6F14
(lp7216
g694
asV\u9016
(lp7217
g1577
asV\u961A
(lp7218
g5987
ag1127
ag734
asV\u7A9D
(lp7219
g566
asV\u8222
(lp7220
g855
asV\u6CA9
(lp7221
g1037
asV\u8E2A
(lp7222
g519
asV\u52AD
(lp7223
g466
asV\u97AF
(lp7224
g117
asV\u742E
(lp7225
g817
asV\u5EB5
(lp7226
g3896
asV\u83B7
(lp7227
g334
asV\u75C3
(lp7228
g3705
asV\u5242
(lp7229
g391
asV\u7BC7
(lp7230
g251
asV\u61CB
(lp7231
g608
asV\u67CF
(lp7232
g1113
ag398
ag2627
asV\u53D7
(lp7233
g554
asV\u94D9
(lp7234
g2206
asV\u80E1
(lp7235
g18
asV\u72ED
(lp7236
g243
asV\u7EF5
(lp7237
g2921
asV\u867A
(lp7238
g3042
ag3214
asV\u9503
(lp7239
g518
asV\u5C09
(lp7240
g452
ag231
asV\u4E15
(lp7241
g199
asV\u7317
(lp7242
g9
asV\u7F1F
(lp7243
g883
asV\u6B27
(lp7244
g584
asV\u572F
(lp7245
g599
asV\u9E35
(lp7246
g1600
asV\u51C0
(lp7247
g2128
asV\u624D
(lp7248
g2527
asV\u6851
(lp7249
g5659
asV\u5459
(lp7250
g541
asV\u62E2
(lp7251
g1538
asV\u54EE
(lp7252
g227
asV\u6377
(lp7253
g172
asV\u8BFC
(lp7254
g536
asV\u9F89
(lp7255
g271
asV\u4E93
(lp7256
g476
asV\u6C14
(lp7257
g12
asV\u5618
(lp7258
g794
ag106
asV\u951A
(lp7259
g417
asV\u65A5
(lp7260
g758
asV\u8B26
(lp7261
g1070
asV\u4E28
(lp7262
g660
asV\u8D2A
(lp7263
g1692
asV\u94AF
(lp7264
g6638
ag3111
asV\u80B7
(lp7265
g1918
asV\u6F3E
(lp7266
g1904
asV\u9E48
(lp7267
g1846
asV\u5D4A
(lp7268
g850
asV\u804C
(lp7269
g922
asV\u6ED3
(lp7270
g1347
asV\u83E1
(lp7271
g1334
asV\u8FE9
(lp7272
g462
asV\u506C
(lp7273
g5874
asV\u7BF1
(lp7274
g146
asV\u9972
(lp7275
g866
asV\u857A
(lp7276
g11
asV\u69FD
(lp7277
g577
asV\u8F7E
(lp7278
g53
asV\u9603
(lp7279
g4725
asV\u840F
(lp7280
g675
asV\u9698
(lp7281
g1078
asV\u989C
(lp7282
g969
asV\u7C1F
(lp7283
g142
asV\u522B
(lp7284
g3778
aS'bie'
p7285
asV\u70AC
(lp7286
g209
asV\u542F
(lp7287
g190
asV\u7545
(lp7288
g184
asV\u54C4
(lp7289
g3051
aS'hong'
p7290
ag2449
asV\u89D2
(lp7291
g359
ag360
ag302
asV\u9057
(lp7292
g452
ag599
asV\u4F69
(lp7293
g295
asV\u86F8
(lp7294
g1458
ag227
asV\u88FC
(lp7295
g1577
asV\u4FFE
(lp7296
g570
asV\u5783
(lp7297
g1166
asV\u7504
(lp7298
g150
asV\u5987
(lp7299
g62
asV\u7F08
(lp7300
g299
asV\u7699
(lp7301
g32
asV\u591C
(lp7302
g2043
asV\u62A1
(lp7303
S'lun'
p7304
ag1966
asV\u8022
(lp7305
g1832
asV\u8C2A
(lp7306
g656
asV\u5CB5
(lp7307
g1245
asV\u643A
(lp7308
g590
asV\u8DBF
(lp7309
g1204
asV\u9544
(lp7310
g948
asV\u5A46
(lp7311
g75
asV\u5C4A
(lp7312
g708
asV\u814C
(lp7313
S'a'
ag365
asV\u65CF
(lp7314
g5855
asV\u8D54
(lp7315
g3870
asV\u795C
(lp7316
g1245
asV\u82E1
(lp7317
g1911
asV\u84E5
(lp7318
g1820
asV\u70ED
(lp7319
S're'
p7320
asV\u516C
(lp7321
g691
asV\u5B70
(lp7322
g2936
asV\u5D74
(lp7323
g11
asV\u66F9
(lp7324
g577
asV\u847A
(lp7325
g12
asV\u5201
(lp7326
g1386
asV\u7A86
(lp7327
g4847
asV\u9798
(lp7328
g873
ag1458
asV\u7B1B
(lp7329
g1498
asV\u549A
(lp7330
g4357
asV\u5E9E
(lp7331
g1870
asV\u83A0
(lp7332
g2355
asV\u85A4
(lp7333
g310
asV\u8FA8
(lp7334
g401
asV\u902D
(lp7335
g136
asV\u71AC
(lp7336
g4766
ag226
asV\u552F
(lp7337
g1037
ag806
asV\u67B8
(lp7338
g887
ag787
ag429
asV\u55C4
(lp7339
S'a'
ag1367
asV\u9CCA
(lp7340
g2282
asV\u604D
(lp7341
g2751
asV\u86CE
(lp7342
g91
asV\u88D2
(lp7343
g6966
asV\u6C55
(lp7344
g1708
asV\u9157
(lp7345
g2050
asV\u5659
(lp7346
g507
asV\u7EDE
(lp7347
g359
ag360
asV\u8763
(lp7348
g320
asV\u4E69
(lp7349
g189
asV\u6CEA
(lp7350
g764
asV\u6177
(lp7351
g2898
asV\u6B7B
(lp7352
S'si'
p7353
asV\u5E87
(lp7354
g192
asV\u878D
(lp7355
g592
asV\u660C
(lp7356
g34
asV\u8D91
(lp7357
g516
asV\u6C10
(lp7358
g104
ag489
asV\u9516
(lp7359
g1715
asV\u7199
(lp7360
g32
asV\u5018
(lp7361
g985
ag4906
asV\u7F9D
(lp7362
g104
asV\u5E1C
(lp7363
g53
asV\u65A1
(lp7364
g1605
asV\u8722
(lp7365
g130
asV\u63A5
(lp7366
g171
asV\u8D26
(lp7367
g1546
asV\u94AB
(lp7368
g132
asV\u57AD
(lp7369
g1228
asV\u7F32
(lp7370
g1312
ag1155
ag2047
asV\u5BB5
(lp7371
g227
asV\u6536
(lp7372
S'shou'
p7373
asV\u633A
(lp7374
g4648
asV\u70C3
(lp7375
g1151
asV\u5742
(lp7376
g2470
asV\u7EC7
(lp7377
g52
asV\u56D7
(lp7378
g1037
asV\u83E5
(lp7379
g32
asV\u6868
(lp7380
g2045
asV\u77ED
(lp7381
S'duan'
p7382
asV\u566C
(lp7383
g1523
asV\u916E
(lp7384
g562
asV\u5A74
(lp7385
g66
asV\u5501
(lp7386
g174
asV\u9003
(lp7387
g220
asV\u5305
(lp7388
g820
asV\u840B
(lp7389
g528
asV\u618E
(lp7390
g264
asV\u8813
(lp7391
g130
asV\u7617
(lp7392
g148
asV\u539A
(lp7393
g120
asV\u599E
(lp7394
S'niu'
p7395
asV\u82A4
(lp7396
g1620
asV\u542B
(lp7397
g501
asV\u972D
(lp7398
g2122
asV\u60B8
(lp7399
g391
asV\u54C0
(lp7400
g2693
asV\u7949
(lp7401
g924
asV\u6D51
(lp7402
g4030
asV\u75D6
(lp7403
g3001
asV\u5F5D
(lp7404
g599
asV\u67E2
(lp7405
g489
asV\u6DE6
(lp7406
g1271
asV\u6BEA
(lp7407
g4238
asV\u726F
(lp7408
g597
asV\u6677
(lp7409
g1179
asV\u80F8
(lp7410
g1989
asV\u5F87
(lp7411
g503
asV\u9889
(lp7412
g172
ag590
asV\u868D
(lp7413
g207
asV\u7099
(lp7414
g53
asV\u62A5
(lp7415
g1230
asV\u8C26
(lp7416
g176
asV\u5CB1
(lp7417
g1815
asV\u5AB5
(lp7418
g67
asV\u8BBF
(lp7419
g1461
asV\u683E
(lp7420
g348
asV\u9540
(lp7421
g3057
asV\u71C3
(lp7422
g5499
asV\u65CB
(lp7423
g3705
ag625
asV\u5A4A
(lp7424
g158
asV\u874C
(lp7425
g1033
asV\u63CF
(lp7426
g2598
asV\u8D50
(lp7427
g4174
asV\u4E52
(lp7428
g595
asV\u5DDB
(lp7429
g1085
asV\u9EDD
(lp7430
g2355
asV\u5BDF
(lp7431
g662
asV\u82E5
(lp7432
g6435
ag2727
asV\u906E
(lp7433
g655
asV\u8476
(lp7434
g1174
asV\u60F9
(lp7435
g6435
asV\u827A
(lp7436
g148
asV\u4F7C
(lp7437
g359
ag360
asV\u887E
(lp7438
g579
asV\u5401
(lp7439
g106
ag4255
ag231
asV\u7682
(lp7440
g163
asV\u830F
(lp7441
g450
asV\u8913
(lp7442
g933
asV\u5496
(lp7443
g326
ag1025
asV\u589E
(lp7444
g264
asV\u6123
(lp7445
S'leng'
p7446
asV\u77AC
(lp7447
g3096
asV\u7BB4
(lp7448
g150
asV\u8E3D
(lp7449
g429
asV\u7441
(lp7450
g608
asV\u9CC6
(lp7451
g62
asV\u80CE
(lp7452
g4259
asV\u8F67
(lp7453
g327
ag1683
ag484
asV\u97EC
(lp7454
g671
asV\u736F
(lp7455
g658
asV\u50EE
(lp7456
g1233
asV\u6777
(lp7457
g3111
asV\u7600
(lp7458
g4255
asV\u9185
(lp7459
g770
asV\u640C
(lp7460
g4417
asV\u8F91
(lp7461
g11
asV\u6E10
(lp7462
g117
ag262
asV\u9716
(lp7463
g28
asV\u5218
(lp7464
g1513
asV\u5C1C
(lp7465
g327
asV\u892A
(lp7466
g645
aS'tun'
p7467
asV\u90AF
(lp7468
g501
asV\u732E
(lp7469
g36
asV\u6B3E
(lp7470
S'kuan'
p7471
asV\u9640
(lp7472
g1600
asV\u72C3
(lp7473
g2699
asV\u9044
(lp7474
g1632
asV\u7CC7
(lp7475
g3153
asV\u8854
(lp7476
g1753
asV\u54D7
(lp7477
g3274
ag875
ag2043
asV\u5EDB
(lp7478
g1054
asV\u6064
(lp7479
g2050
asV\u8BE9
(lp7480
g2553
asV\u7FF1
(lp7481
g226
asV\u8776
(lp7482
g408
asV\u817A
(lp7483
g36
asV\u5B09
(lp7484
g32
asV\u798A
(lp7485
g427
asV\u638E
(lp7486
g205
asV\u4F11
(lp7487
g896
asV\u9C9C
(lp7488
g834
ag486
asV\u781F
(lp7489
g5126
asV\u5B9E
(lp7490
g796
asV\u80A4
(lp7491
g496
asV\u6C27
(lp7492
g1332
asV\u4FA6
(lp7493
g150
asV\u952D
(lp7494
g2871
asV\u7EB0
(lp7495
g199
asV\u78B4
(lp7496
g1098
ag662
asV\u8339
(lp7497
g976
asV\u4E3B
(lp7498
g880
asV\u8D3D
(lp7499
g53
asV\u6CBC
(lp7500
g1221
asV\u7741
(lp7501
g1487
asV\u7145
(lp7502
g2384
asV\u7B49
(lp7503
g3867
asV\u9E5B
(lp7504
g804
asV\u5D5D
(lp7505
g3023
asV\u65E2
(lp7506
g391
asV\u766B
(lp7507
g2176
asV\u94EC
(lp7508
g992
asV\u706F
(lp7509
g534
asV\u53EE
(lp7510
g3294
asV\u5DF2
(lp7511
g1911
asV\u7B08
(lp7512
g11
asV\u9616
(lp7513
g26
asV\u901A
(lp7514
g5976
ag4849
asV\u7C9D
(lp7515
g91
asV\u6AA9
(lp7516
g4597
asV\u97AB
(lp7517
g643
asV\u54AD
(lp7518
g189
asV\u91AF
(lp7519
g32
asV\u85B7
(lp7520
g976
asV\u6636
(lp7521
g1105
asV\u6A3E
(lp7522
g273
asV\u9B48
(lp7523
g227
asV\u6BD3
(lp7524
g231
asV\u9CDD
(lp7525
g1708
asV\u6760
(lp7526
g1061
ag3060
asV\u80E5
(lp7527
g106
asV\u556C
(lp7528
g1837
asV\u7EF1
(lp7529
g115
asV\u5F70
(lp7530
g573
asV\u5974
(lp7531
g4601
asV\u6CFD
(lp7532
g717
asV\u5601
(lp7533
g528
asV\u5A09
(lp7534
g595
asV\u810F
(lp7535
g1681
asV\u4E11
(lp7536
g1429
asV\u7F1B
(lp7537
g4313
asV\u6323
(lp7538
g1487
ag2566
asV\u6D27
(lp7539
g806
asV\u4EA6
(lp7540
g148
asV\u8BA8
(lp7541
S'tao'
p7542
asV\u75AC
(lp7543
g91
asV\u9E31
(lp7544
g297
asV\u7FB0
(lp7545
g4665
asV\u8239
(lp7546
g1632
asV\u63B8
(lp7547
g1639
ag950
ag1708
asV\u94C2
(lp7548
g398
asV\u51C4
(lp7549
g528
asV\u82CE
(lp7550
g1726
ag233
asV\u4FD0
(lp7551
g91
asV\u6855
(lp7552
g2185
asV\u9557
(lp7553
g4665
ag2235
asV\u76D6
(lp7554
g324
ag1014
asV\u7ADE
(lp7555
g2128
asV\u8363
(lp7556
g592
asV\u64E2
(lp7557
g536
asV\u8D67
(lp7558
g2572
asV\u6EE6
(lp7559
g348
asV\u776B
(lp7560
g172
asV\u6577
(lp7561
g496
asV\u83F8
(lp7562
g365
asV\u9981
(lp7563
g5170
asV\u7800
(lp7564
g406
asV\u9F85
(lp7565
g820
asV\u4E8F
(lp7566
g2719
asV\u8191
(lp7567
g808
asV\u6614
(lp7568
g32
asV\u5C18
(lp7569
g112
asV\u951E
(lp7570
g178
asV\u4E24
(lp7571
g1927
asV\u65A9
(lp7572
g4417
asV\u51B1
(lp7573
g1245
asV\u94B3
(lp7574
g118
asV\u653E
(lp7575
S'fang'
p7576
asV\u9E44
(lp7577
g597
ag18
asV\u5146
(lp7578
g1139
asV\u68CB
(lp7579
g476
asV\u574A
(lp7580
g132
ag2395
asV\u6ECF
(lp7581
g917
asV\u8654
(lp7582
g118
asV\u56DF
(lp7583
g1402
asV\u6860
(lp7584
g1228
asV\u8FE5
(lp7585
g1880
asV\u85E9
(lp7586
g1947
asV\u6DF9
(lp7587
g365
asV\u8F7A
(lp7588
g330
asV\u63FD
(lp7589
g2218
asV\u857E
(lp7590
g73
asV\u5509
(lp7591
g2693
ag1078
asV\u8E0F
(lp7592
g1204
ag1281
asV\u6D8E
(lp7593
g1753
asV\u6392
(lp7594
g40
ag5362
asV\u7A17
(lp7595
g3137
asV\u5996
(lp7596
g2373
asV\u701B
(lp7597
g1820
asV\u761F
(lp7598
g3762
asV\u7AAC
(lp7599
g270
asV\u9131
(lp7600
g75
asV\u76B4
(lp7601
S'cun'
p7602
asV\u8D39
(lp7603
g948
asV\u6CB8
(lp7604
g948
asV\u62BC
(lp7605
g1228
asV\u7941
(lp7606
g476
asV\u7F45
(lp7607
g1956
asV\u54C8
(lp7608
g1141
aS'ha'
p7609
aS'ha'
p7610
asV\u8DCE
(lp7611
g1600
asV\u6151
(lp7612
g5
asV\u905B
(lp7613
g1513
ag253
asV\u965F
(lp7614
g53
asV\u75DE
(lp7615
g260
asV\u4F65
(lp7616
g176
asV\u61E6
(lp7617
g2388
asV\u786B
(lp7618
g1513
asV\u5DEE
(lp7619
g1098
ag279
ag1133
ag4464
asV\u53F2
(lp7620
g1731
asV\u607B
(lp7621
g377
asV\u4FFA
(lp7622
g1530
asV\u9881
(lp7623
g532
asV\u7F04
(lp7624
g117
asV\u9489
(lp7625
g3294
ag2871
asV\u4F8F
(lp7626
g773
asV\u8695
(lp7627
g6017
asV\u6714
(lp7628
g666
asV\u6EA5
(lp7629
g367
asV\u4F24
(lp7630
g505
asV\u8026
(lp7631
g2667
asV\u64A9
(lp7632
g6703
ag498
ag1124
asV\u8BB7
(lp7633
g722
asV\u81BB
(lp7634
g855
asV\u6E3A
(lp7635
g299
asV\u9F44
(lp7636
g1350
asV\u8150
(lp7637
g917
asV\u9CD9
(lp7638
g539
asV\u51DB
(lp7639
g4597
asV\u57DF
(lp7640
g231
asV\u6960
(lp7641
g3649
asV\u7AED
(lp7642
g172
asV\u5B6C
(lp7643
S'nao'
p7644
asV\u5170
(lp7645
g549
asV\u62FD
(lp7646
g2043
aS'zhuai'
p7647
ag1746
asV\u5E05
(lp7648
g3071
asV\u5409
(lp7649
g11
asV\u8513
(lp7650
g277
ag616
ag2500
asV\u6292
(lp7651
g445
asV\u5E9A
(lp7652
g863
asV\u771F
(lp7653
g150
asV\u85A8
(lp7654
g3051
asV\u592B
(lp7655
g496
ag193
asV\u7BAC
(lp7656
g2727
asV\u5F2F
(lp7657
g1705
asV\u5533
(lp7658
g91
asV\u9635
(lp7659
g4703
asV\u6DB8
(lp7660
g26
asV\u63BC
(lp7661
g156
asV\u9AC2
(lp7662
g1923
asV\u82D2
(lp7663
g4267
asV\u6655
(lp7664
g6682
ag1160
asV\u5C59
(lp7665
S'e'
asV\u7EDA
(lp7666
g625
asV\u74DE
(lp7667
g408
asV\u8D63
(lp7668
g1271
asV\u8367
(lp7669
g1820
asV\u60E6
(lp7670
g142
asV\u8DF8
(lp7671
g192
asV\u677F
(lp7672
g2470
asV\u7A00
(lp7673
g32
asV\u680C
(lp7674
g50
asV\u6210
(lp7675
g814
asV\u6414
(lp7676
g1155
asV\u5E18
(lp7677
g306
asV\u501C
(lp7678
g1577
asV\u971E
(lp7679
g243
asV\u6BA1
(lp7680
g808
asV\u7F2E
(lp7681
g1708
asV\u96B3
(lp7682
g3042
asV\u55B5
(lp7683
S'miao'
p7684
asV\u88B7
(lp7685
g631
ag1302
asV\u84BF
(lp7686
g6253
asV\u7EC3
(lp7687
g3196
asV\u5942
(lp7688
g136
asV\u9648
(lp7689
g112
asV\u554A
(lp7690
S'a'
aS'a'
aS'a'
aS'a'
aS'a'
asV\u884C
(lp7691
g1308
ag1379
ag1309
ag1163
asV\u4F4E
(lp7692
g104
asV\u54DF
(lp7693
g5153
aS'yo'
p7694
asV\u8BE1
(lp7695
g1179
asV\u4EE3
(lp7696
g1815
asV\u6C64
(lp7697
g505
ag4665
asV\u6668
(lp7698
g112
asV\u79ED
(lp7699
g1347
asV\u586C
(lp7700
g336
asV\u9172
(lp7701
g814
asV\u877E
(lp7702
g592
asV\u5709
(lp7703
g271
asV\u8C0F
(lp7704
g262
asV\u6F8E
(lp7705
g2101
ag1985
asV\u7817
(lp7706
g5748
asV\u6E23
(lp7707
g1350
asV\u6027
(lp7708
g2035
asV\u86A8
(lp7709
g193
asV\u72B0
(lp7710
g802
asV\u9535
(lp7711
g1715
asV\u60BC
(lp7712
g1081
asV\u5CC4
(lp7713
g148
asV\u8FCE
(lp7714
g1820
asV\u6555
(lp7715
g758
asV\u5FEE
(lp7716
g53
asV\u94F4
(lp7717
g4665
asV\u6877
(lp7718
g302
asV\u80FC
(lp7719
g929
asV\u9A81
(lp7720
g227
asV\u9C85
(lp7721
g2975
asV\u7708
(lp7722
g2675
asV\u888D
(lp7723
g2653
asV\u8291
(lp7724
g190
asV\u5F18
(lp7725
g1587
asV\u709D
(lp7726
g3306
asV\u8822
(lp7727
S'chun'
p7728
asV\u6CA5
(lp7729
g91
asV\u52B1
(lp7730
g91
asV\u663E
(lp7731
g486
asV\u6BCB
(lp7732
g1076
asV\u544A
(lp7733
g3953
asV\u4E4E
(lp7734
g1724
asV\u8350
(lp7735
g262
asV\u67D3
(lp7736
g4267
asV\u59D7
(lp7737
g855
asV\u7F58
(lp7738
g193
asV\u53DB
(lp7739
g1103
asV\u90DD
(lp7740
g318
asV\u715C
(lp7741
g231
asV\u55DF
(lp7742
g171
ag322
asV\u4FE3
(lp7743
g271
asV\u86E9
(lp7744
g736
asV\u6768
(lp7745
g2424
asV\u72F1
(lp7746
g231
asV\u5370
(lp7747
g419
asV\u6EF9
(lp7748
g1724
asV\u8C7A
(lp7749
g962
asV\u867E
(lp7750
g5448
ag4896
asV\u5A01
(lp7751
g144
asV\u5609
(lp7752
g522
asV\u8713
(lp7753
g1174
asV\u6092
(lp7754
g148
asV\u731B
(lp7755
g130
asV\u5C9A
(lp7756
g549
asV\u751F
(lp7757
g2124
asV\u6127
(lp7758
g2029
asV\u87A8
(lp7759
g2532
asV\u73B0
(lp7760
g36
asV\u5733
(lp7761
g4703
asV\u75B4
(lp7762
g1033
asV\u8E39
(lp7763
g1745
asV\u803D
(lp7764
g2675
asV\u94CA
(lp7765
g1204
ag1600
asV\u8ECE
(lp7766
g452
asV\u6251
(lp7767
g2830
asV\u7AD6
(lp7768
g660
asV\u955F
(lp7769
g625
asV\u8167
(lp7770
g660
asV\u62E6
(lp7771
g549
asV\u95F4
(lp7772
g117
ag262
asV\u6977
(lp7773
g171
ag1975
asV\u8FF8
(lp7774
g379
asV\u637B
(lp7775
g2902
asV\u81FC
(lp7776
g2185
asV\u5883
(lp7777
g2128
asV\u9189
(lp7778
g2606
asV\u8F8D
(lp7779
g1470
asV\u6E0C
(lp7780
g110
asV\u6410
(lp7781
g1395
asV\u911E
(lp7782
g2326
asV\u6DA1
(lp7783
g541
ag566
asV\u61A9
(lp7784
g12
asV\u9CAB
(lp7785
g391
asV\u5FAD
(lp7786
g330
asV\u55B1
(lp7787
g146
asV\u90B3
(lp7788
g199
asV\u6B3A
(lp7789
g528
asV\u5546
(lp7790
g505
asV\u534A
(lp7791
g140
asV\u765C
(lp7792
g142
asV\u52DF
(lp7793
g852
asV\u6C60
(lp7794
g71
asV\u8BE5
(lp7795
g1050
asV\u6068
(lp7796
S'hen'
p7797
asV\u996E
(lp7798
g2105
ag419
asV\u75F1
(lp7799
g948
asV\u8D76
(lp7800
g222
asV\u67FD
(lp7801
g744
asV\u817E
(lp7802
g560
asV\u7586
(lp7803
g304
asV\u8C0B
(lp7804
g24
asV\u4F0D
(lp7805
g472
asV\u9898
(lp7806
g1846
asV\u741B
(lp7807
g2172
asV\u5B9A
(lp7808
g2871
asV\u969C
(lp7809
g1546
asV\u6627
(lp7810
g1115
asV\u7EAC
(lp7811
g806
asV\u9531
(lp7812
g516
asV\u72B4
(lp7813
g454
asV\u7B45
(lp7814
g486
asV\u93CA
(lp7815
g342
asV\u6F4D
(lp7816
g1037
asV\u89CE
(lp7817
g270
asV\u6551
(lp7818
g2185
asV\u87D2
(lp7819
g1186
asV\u6355
(lp7820
g934
asV\u9E57
(lp7821
S'e'
asV\u7BDA
(lp7822
g1304
asV\u575D
(lp7823
g2975
asV\u8863
(lp7824
g9
ag1911
ag148
asV\u65E6
(lp7825
g675
asV\u63EA
(lp7826
g213
asV\u94F0
(lp7827
g359
ag360
asV\u88F8
(lp7828
g4389
asV\u627F
(lp7829
g814
asV\u9C81
(lp7830
g1362
asV\u5983
(lp7831
g1860
asV\u9A85
(lp7832
g875
asV\u7B04
(lp7833
g189
asV\u571C
(lp7834
g799
ag336
asV\u901E
(lp7835
g3199
asV\u6CA1
(lp7836
g804
ag375
asV\u8E22
(lp7837
g1291
asV\u8426
(lp7838
g1820
asV\u822A
(lp7839
g1308
asV\u5EAD
(lp7840
g1174
asV\u54B1
(lp7841
g3329
aS'zan'
p7842
aS'zan'
p7843
asV\u79C3
(lp7844
g2233
asV\u5E42
(lp7845
g868
asV\u9B44
(lp7846
g398
ag332
ag752
asV\u5446
(lp7847
g457
ag3229
asV\u6DCB
(lp7848
g28
ag1191
asV\u524A
(lp7849
g227
ag4114
asV\u6BCF
(lp7850
g1789
asV\u8354
(lp7851
g91
asV\u5FD7
(lp7852
g53
asV\u98D9
(lp7853
g56
asV\u53DF
(lp7854
g431
asV\u6D60
(lp7855
g32
asV\u6B64
(lp7856
S'ci'
p7857
asV\u80E9
(lp7858
g1026
asV\u6168
(lp7859
g1975
asV\u7EED
(lp7860
g2050
asV\u5F6C
(lp7861
g102
asV\u9672
(lp7862
g100
asV\u5374
(lp7863
g20
asV\u68F9
(lp7864
g1139
asV\u5C01
(lp7865
g620
asV\u7E82
(lp7866
g1482
asV\u5A05
(lp7867
g1683
asV\u9707
(lp7868
g4703
asV\u728A
(lp7869
g681
asV\u4E0D
(lp7870
g3667
ag126
asV\u8113
(lp7871
g3645
asV\u7F17
(lp7872
g3440
asV\u5C96
(lp7873
g1267
asV\u9998
(lp7874
g448
asV\u5A9A
(lp7875
g1115
asV\u4EA2
(lp7876
g1353
asV\u8BA4
(lp7877
g1417
asV\u81A8
(lp7878
g1985
asV\u9E2D
(lp7879
g1228
asV\u75B0
(lp7880
g233
asV\u8839
(lp7881
g3057
asV\u7C41
(lp7882
g87
asV\u5BC4
(lp7883
g391
asV\u94C6
(lp7884
g2398
asV\u6E4D
(lp7885
S'tuan'
p7886
asV\u88CE
(lp7887
g814
ag3199
asV\u7CD6
(lp7888
g2235
asV\u955B
(lp7889
g539
asV\u6EE2
(lp7890
g1820
asV\u64E6
(lp7891
g1132
asV\u58EE
(lp7892
g1233
asV\u95F0
(lp7893
g5662
asV\u7173
(lp7894
g18
asV\u9985
(lp7895
g36
asV\u4E8B
(lp7896
g1523
asV\u6014
(lp7897
g1487
ag2566
asV\u5A18
(lp7898
g1425
asV\u759D
(lp7899
g1708
asV\u6FA1
(lp7900
g2047
asV\u8D22
(lp7901
g2527
asV\u63A9
(lp7902
g694
asV\u7B2E
(lp7903
g717
ag696
asV\u7532
(lp7904
g359
asV\u51B5
(lp7905
g2244
asV\u6F36
(lp7906
g136
asV\u80BF
(lp7907
g3220
asV\u6ECB
(lp7908
g516
asV\u8C4C
(lp7909
g1705
asV\u62D3
(lp7910
g1281
ag752
asV\u8054
(lp7911
g306
asV\u56DB
(lp7912
g866
asV\u745C
(lp7913
g270
asV\u89E5
(lp7914
g691
asV\u6864
(lp7915
g528
asV\u83E9
(lp7916
g362
asV\u9572
(lp7917
g2468
asV\u8F76
(lp7918
g148
asV\u6BF9
(lp7919
g445
asV\u5F01
(lp7920
g401
asV\u718A
(lp7921
g3590
asV\u9A98
(lp7922
g53
asV\u761B
(lp7923
g758
asV\u949C
(lp7924
g209
asV\u88A4
(lp7925
g608
asV\u82A8
(lp7926
g189
asV\u5233
(lp7927
g138
asV\u853D
(lp7928
g192
asV\u64BC
(lp7929
g1334
asV\u91CA
(lp7930
g1523
asV\u6D4D
(lp7931
g1101
ag2537
asV\u8BCE
(lp7932
g1267
asV\u6751
(lp7933
g7602
asV\u6155
(lp7934
g852
asV\u5B59
(lp7935
g2733
asV\u965B
(lp7936
g192
asV\u73DE
(lp7937
g993
asV\u5BEE
(lp7938
g498
asV\u55F2
(lp7939
S'dia'
p7940
asV\u90F4
(lp7941
g2172
asV\u84FC
(lp7942
g499
ag110
asV\u607F
(lp7943
g1702
asV\u7F00
(lp7944
g909
asV\u5B83
(lp7945
g1204
asV\u9885
(lp7946
g50
asV\u5587
(lp7947
g1166
ag2792
ag3508
asV\u4F8B
(lp7948
g91
asV\u6D0C
(lp7949
g614
asV\u6710
(lp7950
g898
asV\u4F20
(lp7951
g1632
ag1636
asV\u8C22
(lp7952
g310
asV\u802A
(lp7953
S'pang'
p7954
asV\u5CAD
(lp7955
g1540
asV\u623E
(lp7956
g91
asV\u5C42
(lp7957
g6069
asV\u75C7
(lp7958
g1487
ag2566
asV\u8D4C
(lp7959
g2542
asV\u8154
(lp7960
g1715
asV\u7B58
(lp7961
g1932
asV\u94DD
(lp7962
g182
asV\u755C
(lp7963
g1395
ag2050
asV\u88E5
(lp7964
g601
asV\u5D6C
(lp7965
g1037
asV\u9A6E
(lp7966
g860
ag1600
asV\u76F1
(lp7967
g106
asV\u5174
(lp7968
g3467
ag2035
asV\u8E76
(lp7969
g302
aS'jue'
p7970
asV\u827E
(lp7971
g1078
ag148
asV\u5E01
(lp7972
g192
asV\u9B03
(lp7973
g519
asV\u9507
(lp7974
S'e'
asV\u7686
(lp7975
g171
asV\u708A
(lp7976
g2687
asV\u6A8E
(lp7977
g507
asV\u6492
(lp7978
g1645
ag3903
asV\u5E96
(lp7979
g2653
asV\u589A
(lp7980
g510
asV\u529E
(lp7981
g140
asV\u6B23
(lp7982
g684
asV\u83A8
(lp7983
g3685
ag510
asV\u592F
(lp7984
g2924
aS'hang'
p7985
asV\u9631
(lp7986
g2020
asV\u77B0
(lp7987
g734
asV\u9035
(lp7988
g1052
asV\u843D
(lp7989
g2591
ag1832
ag2437
ag993
asV\u65BC
(lp7990
g1195
ag4255
asV\u7E41
(lp7991
g858
ag75
asV\u7845
(lp7992
g1463
asV\u96C6
(lp7993
g11
asV\u53C8
(lp7994
g258
asV\u90CA
(lp7995
g789
asV\u6055
(lp7996
g660
asV\u975B
(lp7997
g142
asV\u72DE
(lp7998
g1726
asV\u4E61
(lp7999
g314
asV\u6CE2
(lp8000
g1096
asV\u66E6
(lp8001
g32
asV\u796F
(lp8002
g150
asV\u54F2
(lp8003
g656
asV\u6D77
(lp8004
g2744
asV\u4EF6
(lp8005
g262
asV\u8BF8
(lp8006
g773
as.