(dp1
S'yingping'
p2
V\u5f71\u8bc4
p3
sS'dongxi'
p4
V\u4e1c\u897f
p5
sS'cadiao'
p6
V\u64e6\u6389
p7
sVwoaichina
p8
V\u6211\u7231china
p9
sS'juqing'
p10
V\u5267\u60c5
p11
sS'huiyi'
p12
V\u56de\u5fc6
p13
sS'lanmeizhiye'
p14
V\u84dd\u8393\u4e4b\u591c
p15
sS'rizhi'
p16
V\u65e5\u5fd7
p17
sS'xiqukeke'
p18
V\u5e0c\u533a\u67ef\u514b
p19
sS'huati'
p20
V\u8bdd\u9898
p21
sS'douniu'
p22
V\u6597\u725b
p23
sS'aiqing'
p24
V\u7231\u60c5
p25
sS'meiguo'
p26
V\u7f8e\u56fd
p27
sS'wozhexiwang'
p28
V\u63e1\u7740\u5e0c\u671b
p29
sS'bochongzaichuntian'
p30
V\u64ad\u79cd\u5728\u6625\u5929
p31
sS'zhongguo'
p32
V\u4e2d\u56fd
p33
sS'wodi'
p34
V\u6211\u7684
p35
sS'wozhuoxiwang'
p36
g29
sS'quanbu'
p37
V\u5168\u90e8
p38
sS'wozhaoxiwang'
p39
g29
sS'xioukeke'
p40
g19
sS'wode'
p41
g35
sS'yingren'
p42
V\u5f71\u4eba
p43
sS'zhaopian'
p44
V\u7167\u7247
p45
sS'bozhongzaichuntian'
p46
g31
sS'chenggong'
p47
V\u6210\u529f
p48
sS'taodie'
p49
V\u6dd8\u789f
p50
sS'wuzun'
p51
V\u5434\u5c0a
p52
sS'dianying'
p53
V\u7535\u5f71
p54
sS'shishi'
p55
V\u901d\u4e16
p56
sS'zhenzidan'
p57
V\u7504\u5b50\u4e39
p58
sS'lameizhiye'
p59
g15
sS'lunli'
p60
V\u4f26\u7406
p61
sS'biane'
p62
V\u533e\u989d
p63
sS'dianyingxiazai'
p64
V\u7535\u5f71\u4e0b\u8f7d
p65
s.